 secp256k1

 Timestamp is 5dba7ea8 (Thu Oct 31 10:26:48 2019)

 Preferred load address is 0000000180000000

 Start         Length     Name                   Class
 0001:00000000 00025180H .text$mn                CODE
 0001:00025180 00000020H .text$mn$00             CODE
 0001:000251a0 000002d0H .text$x                 CODE
 0002:00000000 00000250H .idata$5                DATA
 0002:00000250 00000010H .00cfg                  DATA
 0002:00000260 00000008H .CRT$XCA                DATA
 0002:00000268 00000008H .CRT$XCU                DATA
 0002:00000270 00000008H .CRT$XCZ                DATA
 0002:00000278 00000008H .CRT$XIA                DATA
 0002:00000280 00000018H .CRT$XIC                DATA
 0002:00000298 00000008H .CRT$XIZ                DATA
 0002:000002a0 00000008H .CRT$XPA                DATA
 0002:000002a8 00000010H .CRT$XPX                DATA
 0002:000002b8 00000008H .CRT$XPXA               DATA
 0002:000002c0 00000008H .CRT$XPZ                DATA
 0002:000002c8 00000008H .CRT$XTA                DATA
 0002:000002d0 00000010H .CRT$XTZ                DATA
 0002:000002d8 00000000H .gfids$y                DATA
 0002:000002e0 00008d80H .rdata                  DATA
 0002:00009060 00000000H .rdata$r                DATA
 0002:00009060 000003c0H .rdata$zzzdbg           DATA
 0002:00009420 00000008H .rtc$IAA                DATA
 0002:00009428 00000008H .rtc$IZZ                DATA
 0002:00009430 00000008H .rtc$TAA                DATA
 0002:00009438 00000008H .rtc$TZZ                DATA
 0002:00009440 000019d0H .xdata                  DATA
 0002:0000ae10 00000000H .xdata$x                DATA
 0002:0000ae10 00000020H .didat$2                DATA
 0002:0000ae30 00000020H .didat$3                DATA
 0002:0000ae50 000000e0H .didat$4                DATA
 0002:0000af30 00000778H .didat$6                DATA
 0002:0000b6a8 000000e8H .didat$7                DATA
 0002:0000b790 00000058H .edata                  DATA
 0002:0000b7e8 00000014H .idata$2                DATA
 0002:0000b7fc 00000014H .idata$3                DATA
 0002:0000b810 00000250H .idata$4                DATA
 0002:0000ba60 00000560H .idata$6                DATA
 0003:00000000 00000a90H .data                   DATA
 0003:00000a90 00000000H .data$r                 DATA
 0003:00000a90 000000e0H .didat$5                DATA
 0003:00000b70 00001218H .bss                    DATA
 0004:00000000 00001890H .pdata                  DATA
 0005:00000000 00000094H _RDATA                  DATA
 0006:00000000 00000060H .rsrc$01                DATA
 0006:00000060 00000180H .rsrc$02                DATA

  Address         Publics by Value              Rva+Base               Lib:Object

 0000:00000000       __hybrid_code_map_count    0000000000000000     <absolute>
 0000:00000000       __hybrid_code_map          0000000000000000     <absolute>
 0000:00000000       __guard_iat_count          0000000000000000     <absolute>
 0000:00000000       __guard_longjmp_count      0000000000000000     <absolute>
 0000:00000000       __volatile_metadata        0000000000000000     <absolute>
 0000:00000000       __guard_longjmp_table      0000000000000000     <absolute>
 0000:00000000       __guard_iat_table          0000000000000000     <absolute>
 0000:00000000       __guard_fids_count         0000000000000000     <absolute>
 0000:00000000       ___safe_se_handler_count   0000000000000000     <absolute>
 0000:00000000       __enclave_config           0000000000000000     <absolute>
 0000:00000000       __AbsoluteZero             0000000000000000     <absolute>
 0000:00000000       ___safe_se_handler_table   0000000000000000     <absolute>
 0000:00000000       __guard_fids_table         0000000000000000     <absolute>
 0000:00000000       __dynamic_value_reloc_table 0000000000000000     <absolute>
 0000:00000000       __hybrid_auxiliary_iat     0000000000000000     <absolute>
 0000:00000100       __guard_flags              0000000000000100     <absolute>
 0000:00000000       __ImageBase                0000000180000000     <linker-defined>
 0001:000000e0       ?ThrowTypeError@Nan@@YAXPEBD@Z 00000001800010e0 f i addon.obj
 0001:00000170       ?Export@Nan@@YAXV?$Local@VObject@v8@@@v8@@PEBDP6AXAEBV?$FunctionCallbackInfo@VValue@v8@@@1@@Z@Z 0000000180001170 f i addon.obj
 0001:000003e0       ?eccIsPoint@@YAXAEBV?$FunctionCallbackInfo@VValue@v8@@@Nan@@@Z 00000001800013e0 f   addon.obj
 0001:00000480       ?eccIsPointCompressed@@YAXAEBV?$FunctionCallbackInfo@VValue@v8@@@Nan@@@Z 0000000180001480 f   addon.obj
 0001:00000560       ?eccIsPrivate@@YAXAEBV?$FunctionCallbackInfo@VValue@v8@@@Nan@@@Z 0000000180001560 f   addon.obj
 0001:00000660       ?eccPointAdd@@YAXAEBV?$FunctionCallbackInfo@VValue@v8@@@Nan@@@Z 0000000180001660 f   addon.obj
 0001:00000820       ?eccPointAddScalar@@YAXAEBV?$FunctionCallbackInfo@VValue@v8@@@Nan@@@Z 0000000180001820 f   addon.obj
 0001:00000a10       ?eccPointCompress@@YAXAEBV?$FunctionCallbackInfo@VValue@v8@@@Nan@@@Z 0000000180001a10 f   addon.obj
 0001:00000c00       ?eccPointFromScalar@@YAXAEBV?$FunctionCallbackInfo@VValue@v8@@@Nan@@@Z 0000000180001c00 f   addon.obj
 0001:00001050       ?eccPointMultiply@@YAXAEBV?$FunctionCallbackInfo@VValue@v8@@@Nan@@@Z 0000000180002050 f   addon.obj
 0001:00001240       ?eccPrivateAdd@@YAXAEBV?$FunctionCallbackInfo@VValue@v8@@@Nan@@@Z 0000000180002240 f   addon.obj
 0001:00001470       ?eccPrivateSub@@YAXAEBV?$FunctionCallbackInfo@VValue@v8@@@Nan@@@Z 0000000180002470 f   addon.obj
 0001:000016b0       ?ecdsaSign@@YAXAEBV?$FunctionCallbackInfo@VValue@v8@@@Nan@@@Z 00000001800026b0 f   addon.obj
 0001:000018a0       ?ecdsaVerify@@YAXAEBV?$FunctionCallbackInfo@VValue@v8@@@Nan@@@Z 00000001800028a0 f   addon.obj
 0001:00001af0       ?Init@@YAXV?$Local@VObject@v8@@@v8@@@Z 0000000180002af0 f   addon.obj
 0001:00002030       __local_stdio_printf_options 0000000180003030 f i secp256k1.obj
 0001:00002040       fprintf                    0000000180003040 f i secp256k1.obj
 0001:0000f920       secp256k1_ec_pubkey_serialize 0000000180010920 f   secp256k1.obj
 0001:0000fb50       secp256k1_ecdsa_signature_serialize_compact 0000000180010b50 f   secp256k1.obj
 0001:0000fe30       secp256k1_ecdsa_signature_normalize 0000000180010e30 f   secp256k1.obj
 0001:00010140       secp256k1_ecdsa_verify     0000000180011140 f   secp256k1.obj
 0001:000104f0       secp256k1_ecdsa_sign       00000001800114f0 f   secp256k1.obj
 0001:00010720       secp256k1_ec_privkey_negate 0000000180011720 f   secp256k1.obj
 0001:000109f0       secp256k1_ec_privkey_tweak_add 00000001800119f0 f   secp256k1.obj
 0001:00010c10       secp256k1_ec_pubkey_tweak_add 0000000180011c10 f   secp256k1.obj
 0001:00010e70       secp256k1_ec_pubkey_tweak_mul 0000000180011e70 f   secp256k1.obj
 0001:000110d0       secp256k1_ec_pubkey_combine 00000001800120d0 f   secp256k1.obj
 0001:00011374       __imp_load_?Value@External@v8@@QEBAPEAXXZ 0000000180012374 f   node:node.exe
 0001:00011380       __tailMerge_node_exe       0000000180012380     node:node.exe
 0001:000113f9       __imp_load_?New@External@v8@@SA?AV?$Local@VExternal@v8@@@2@PEAVIsolate@2@PEAX@Z 00000001800123f9 f   node:node.exe
 0001:00011405       __imp_load_?ThrowException@Isolate@v8@@QEAA?AV?$Local@VValue@v8@@@2@V32@@Z 0000000180012405 f   node:node.exe
 0001:00011411       __imp_load_?GetCurrentContext@Isolate@v8@@QEAA?AV?$Local@VContext@v8@@@2@XZ 0000000180012411 f   node:node.exe
 0001:0001141d       __imp_load_?GetCurrent@Isolate@v8@@SAPEAV12@XZ 000000018001241d f   node:node.exe
 0001:00011429       __imp_load_?CreateHandle@HandleScope@v8@@CAPEAPEAVObject@internal@2@PEAVHeapObject@42@PEAV342@@Z 0000000180012429 f   node:node.exe
 0001:00011435       __imp_load_??1HandleScope@v8@@QEAA@XZ 0000000180012435 f   node:node.exe
 0001:00011441       __imp_load_??0HandleScope@v8@@QEAA@PEAVIsolate@1@@Z 0000000180012441 f   node:node.exe
 0001:0001144d       __imp_load_?TypeError@Exception@v8@@SA?AV?$Local@VValue@v8@@@2@V?$Local@VString@v8@@@2@@Z 000000018001244d f   node:node.exe
 0001:00011459       __imp_load_?GetFunction@FunctionTemplate@v8@@QEAA?AV?$MaybeLocal@VFunction@v8@@@2@V?$Local@VContext@v8@@@2@@Z 0000000180012459 f   node:node.exe
 0001:00011465       __imp_load_?New@FunctionTemplate@v8@@SA?AV?$Local@VFunctionTemplate@v8@@@2@PEAVIsolate@2@P6AXAEBV?$FunctionCallbackInfo@VValue@v8@@@2@@ZV?$Local@VValue@v8@@@2@V?$Local@VSignature@v8@@@2@HW4ConstructorBehavior@2@W4SideEffectType@2@@Z 0000000180012465 f   node:node.exe
 0001:00011471       __imp_load_?ToLocalEmpty@V8@v8@@CAXXZ 0000000180012471 f   node:node.exe
 0001:0001147d       __imp_load_?BooleanValue@Value@v8@@QEBA_NXZ 000000018001247d f   node:node.exe
 0001:00011489       __imp_load_?Escape@EscapableHandleScope@v8@@AEAAPEAPEAVObject@internal@2@PEAPEAV342@@Z 0000000180012489 f   node:node.exe
 0001:00011495       __imp_load_??0EscapableHandleScope@v8@@QEAA@PEAVIsolate@1@@Z 0000000180012495 f   node:node.exe
 0001:000114a1       __imp_load_?NewFromUtf8@String@v8@@SA?AV?$MaybeLocal@VString@v8@@@2@PEAVIsolate@2@PEBDW4NewStringType@2@H@Z 00000001800124a1 f   node:node.exe
 0001:000114ad       __imp_load_?SlowGetInternalField@Object@v8@@AEAA?AV?$Local@VValue@v8@@@2@H@Z 00000001800124ad f   node:node.exe
 0001:000114b9       __imp_load_?SetInternalField@Object@v8@@QEAAXHV?$Local@VValue@v8@@@2@@Z 00000001800124b9 f   node:node.exe
 0001:000114c5       __imp_load_?Set@Object@v8@@QEAA?AV?$Maybe@_N@2@V?$Local@VContext@v8@@@2@V?$Local@VValue@v8@@@2@1@Z 00000001800124c5 f   node:node.exe
 0001:000114d1       __imp_load_?SetInternalFieldCount@ObjectTemplate@v8@@QEAAXH@Z 00000001800124d1 f   node:node.exe
 0001:000114dd       __imp_load_?NewInstance@ObjectTemplate@v8@@QEAA?AV?$MaybeLocal@VObject@v8@@@2@V?$Local@VContext@v8@@@2@@Z 00000001800124dd f   node:node.exe
 0001:000114e9       __imp_load_?New@ObjectTemplate@v8@@SA?AV?$Local@VObjectTemplate@v8@@@2@PEAVIsolate@2@V?$Local@VFunctionTemplate@v8@@@2@@Z 00000001800124e9 f   node:node.exe
 0001:000114f5       __imp_load_node_module_register 00000001800124f5 f   node:node.exe
 0001:00011501       __imp_load_?HasInstance@Buffer@node@@YA_NV?$Local@VObject@v8@@@v8@@@Z 0000000180012501 f   node:node.exe
 0001:0001150d       __imp_load_?Data@Buffer@node@@YAPEADV?$Local@VObject@v8@@@v8@@@Z 000000018001250d f   node:node.exe
 0001:00011519       __imp_load_?Copy@Buffer@node@@YA?AV?$MaybeLocal@VObject@v8@@@v8@@PEAVIsolate@4@PEBD_K@Z 0000000180012519 f   node:node.exe
 0001:00011525       __imp_load_?Length@Buffer@node@@YA_KV?$Local@VObject@v8@@@v8@@@Z 0000000180012525 f   node:node.exe
 0001:00011550       __security_check_cookie    0000000180012550 f   LIBCMT:amdsecgs.obj
 0001:00011894       _DllMainCRTStartup         0000000180012894 f   LIBCMT:dll_dllmain.obj
 0001:000118d4       __raise_securityfailure    00000001800128d4 f   LIBCMT:gs_report.obj
 0001:00011908       __report_gsfailure         0000000180012908 f   LIBCMT:gs_report.obj
 0001:000119dc       __report_rangecheckfailure 00000001800129dc f   LIBCMT:gs_report.obj
 0001:000119f0       __report_securityfailure   00000001800129f0 f   LIBCMT:gs_report.obj
 0001:00011b70       __security_init_cookie     0000000180012b70 f   LIBCMT:gs_support.obj
 0001:00011c1c       _get_startup_argv_mode     0000000180012c1c f   LIBCMT:argv_mode.obj
 0001:00011c1c       DllMain                    0000000180012c1c f   LIBCMT:dll_dllmain_stub.obj
 0001:00011c24       ?__scrt_initialize_type_info@@YAXXZ 0000000180012c24 f   LIBCMT:tncleanup.obj
 0001:00011c34       ?__scrt_uninitialize_type_info@@YAXXZ 0000000180012c34 f   LIBCMT:tncleanup.obj
 0001:00011c40       __local_stdio_scanf_options 0000000180012c40 f i LIBCMT:default_local_stdio_options.obj
 0001:00011c48       __scrt_initialize_default_local_stdio_options 0000000180012c48 f   LIBCMT:default_local_stdio_options.obj
 0001:00011c64       __scrt_acquire_startup_lock 0000000180012c64 f   LIBCMT:utility.obj
 0001:00011ca0       __scrt_dllmain_after_initialize_c 0000000180012ca0 f   LIBCMT:utility.obj
 0001:00011cd4       __scrt_dllmain_before_initialize_c 0000000180012cd4 f   LIBCMT:utility.obj
 0001:00011cec       __scrt_dllmain_crt_thread_attach 0000000180012cec f   LIBCMT:utility.obj
 0001:00011d14       __scrt_dllmain_crt_thread_detach 0000000180012d14 f   LIBCMT:utility.obj
 0001:00011d2c       __scrt_dllmain_exception_filter 0000000180012d2c f   LIBCMT:utility.obj
 0001:00011d8c       __scrt_dllmain_uninitialize_c 0000000180012d8c f   LIBCMT:utility.obj
 0001:00011dbc       __scrt_dllmain_uninitialize_critical 0000000180012dbc f   LIBCMT:utility.obj
 0001:00011dd0       __scrt_initialize_crt      0000000180012dd0 f   LIBCMT:utility.obj
 0001:00011e1c       __scrt_initialize_onexit_tables 0000000180012e1c f   LIBCMT:utility.obj
 0001:00011ea8       __scrt_is_nonwritable_in_current_image 0000000180012ea8 f   LIBCMT:utility.obj
 0001:00011f40       __scrt_release_startup_lock 0000000180012f40 f   LIBCMT:utility.obj
 0001:00011f64       __scrt_uninitialize_crt    0000000180012f64 f   LIBCMT:utility.obj
 0001:00011f90       __scrt_get_dyn_tls_init_callback 0000000180012f90 f   LIBCMT:dyn_tls_init.obj
 0001:00011f98       __crt_debugger_hook        0000000180012f98 f   LIBCMT:utility_desktop.obj
 0001:00011fa0       __scrt_fastfail            0000000180012fa0 f   LIBCMT:utility_desktop.obj
 0001:000120ec       _RTC_Initialize            00000001800130ec f   LIBCMT:initsect.obj
 0001:00012128       _RTC_Terminate             0000000180013128 f   LIBCMT:initsect.obj
 0001:00012164       _guard_check_icall_nop     0000000180013164 f i LIBCMT:guard_support.obj
 0001:00012168       __isa_available_init       0000000180013168 f   LIBCMT:cpu_disp.obj
 0001:00012300       __scrt_is_ucrt_dll_in_use  0000000180013300 f   LIBCMT:ucrt_detection.obj
 0001:00012310       __C_specific_handler       0000000180013310 f   libvcruntime:riscchandler.obj
 0001:0001251c       __std_type_info_destroy_list 000000018001351c f   libvcruntime:std_type_info.obj
 0001:00012548       __vcrt_initialize          0000000180013548 f   libvcruntime:initialization.obj
 0001:00012570       __vcrt_thread_attach       0000000180013570 f   libvcruntime:initialization.obj
 0001:00012584       __vcrt_thread_detach       0000000180013584 f   libvcruntime:initialization.obj
 0001:00012598       __vcrt_uninitialize        0000000180013598 f   libvcruntime:initialization.obj
 0001:000125b4       __vcrt_uninitialize_critical 00000001800135b4 f   libvcruntime:initialization.obj
 0001:000125c4       __DestructExceptionObject  00000001800135c4 f   libvcruntime:ehhelpers.obj
 0001:00012634       ?_CallMemberFunction0@@YAXQEAX0@Z 0000000180013634 f i libvcruntime:ehhelpers.obj
 0001:00012650       memset_repmovs             0000000180013650 f   libvcruntime:memset.obj
 0001:00012670       memset                     0000000180013670 f   libvcruntime:memset.obj
 0001:00012810       _NLG_Notify                0000000180013810 f   libvcruntime:notify.obj
 0001:00012830       __NLG_Dispatch2            0000000180013830 f   libvcruntime:notify.obj
 0001:00012840       __NLG_Return2              0000000180013840 f   libvcruntime:notify.obj
 0001:00012844       __except_validate_context_record 0000000180013844 f   libvcruntime:jbcxrval.obj
 0001:0001287c       __vcrt_freefls             000000018001387c f   libvcruntime:per_thread_data.obj
 0001:0001289c       __vcrt_freeptd             000000018001389c f   libvcruntime:per_thread_data.obj
 0001:000128ec       __vcrt_getptd              00000001800138ec f   libvcruntime:per_thread_data.obj
 0001:00012908       __vcrt_getptd_noexit       0000000180013908 f   libvcruntime:per_thread_data.obj
 0001:000129c8       __vcrt_initialize_ptd      00000001800139c8 f   libvcruntime:per_thread_data.obj
 0001:00012a10       __vcrt_uninitialize_ptd    0000000180013a10 f   libvcruntime:per_thread_data.obj
 0001:00012a34       __vcrt_initialize_locks    0000000180013a34 f   libvcruntime:locks.obj
 0001:00012a68       __vcrt_uninitialize_locks  0000000180013a68 f   libvcruntime:locks.obj
 0001:00012ab0       memcpy_repmovs             0000000180013ab0 f   libvcruntime:memcpy.obj
 0001:00012ad0       memmove                    0000000180013ad0 f   libvcruntime:memcpy.obj
 0001:00012ad0       memcpy                     0000000180013ad0 f   libvcruntime:memcpy.obj
 0001:00013004       __vcrt_FlsAlloc            0000000180014004 f   libvcruntime:winapi_downlevel.obj
 0001:0001304c       __vcrt_FlsFree             000000018001404c f   libvcruntime:winapi_downlevel.obj
 0001:00013094       __vcrt_FlsGetValue         0000000180014094 f   libvcruntime:winapi_downlevel.obj
 0001:000130dc       __vcrt_FlsSetValue         00000001800140dc f   libvcruntime:winapi_downlevel.obj
 0001:00013130       __vcrt_InitializeCriticalSectionEx 0000000180014130 f   libvcruntime:winapi_downlevel.obj
 0001:000131b0       _CallSettingFrame          00000001800141b0 f   libvcruntime:handlers.obj
 0001:00013200       _CallSettingFrame_LookupContinuationIndex 0000000180014200 f   libvcruntime:handlers.obj
 0001:00013230       _CallSettingFrame_NotifyContinuationAddr 0000000180014230 f   libvcruntime:handlers.obj
 0001:00013260       _CallSettingFrameEncoded   0000000180014260 f   libvcruntime:handlers.obj
 0001:000139c0       ??$ftprintf@PEAU_iobuf@@PEB_WAEBQEB_WAEBQEB_WAEBI@?$__crt_char_traits@_W@@SAH$$QEAPEAU_iobuf@@$$QEAPEB_WAEBQEB_W2AEBI@Z 00000001800149c0 f i libucrt:assert.obj
 0001:000139e8       _wassert                   00000001800149e8 f   libucrt:assert.obj
 0001:00013a5c       fwprintf                   0000000180014a5c f i libucrt:assert.obj
 0001:00013aa0       swprintf                   0000000180014aa0 f i libucrt:assert.obj
 0001:00013af4       abort                      0000000180014af4 f   libucrt:abort.obj
 0001:00013b4c       __acrt_initialize_stdio    0000000180014b4c f   libucrt:_file.obj
 0001:00013c6c       __acrt_iob_func            0000000180014c6c f   libucrt:_file.obj
 0001:00013c80       __acrt_uninitialize_stdio  0000000180014c80 f   libucrt:_file.obj
 0001:00013cdc       _lock_file                 0000000180014cdc f   libucrt:_file.obj
 0001:00013ce8       _unlock_file               0000000180014ce8 f   libucrt:_file.obj
 0001:00013f48       ??$ensure_buffer_is_big_enough@D@formatting_buffer@__crt_stdio_output@@QEAA_N_K@Z 0000000180014f48 f i libucrt:output.obj
 0001:00013ff0       ??$ensure_buffer_is_big_enough@_W@formatting_buffer@__crt_stdio_output@@QEAA_N_K@Z 0000000180014ff0 f i libucrt:output.obj
 0001:0001409c       ??$is_wide_character_specifier@_W@__crt_stdio_output@@YA_N_K_WW4length_modifier@0@@Z 000000018001509c f i libucrt:output.obj
 0001:000140dc       ??$type_case_integer_parse_into_buffer@I@?$output_processor@DV?$stream_output_adapter@D@__crt_stdio_output@@V?$standard_base@DV?$stream_output_adapter@D@__crt_stdio_output@@@2@@__crt_stdio_output@@AEAAXII_N@Z 00000001800150dc f i libucrt:output.obj
 0001:00014164       ??$type_case_integer_parse_into_buffer@I@?$output_processor@_WV?$string_output_adapter@_W@__crt_stdio_output@@V?$standard_base@_WV?$string_output_adapter@_W@__crt_stdio_output@@@2@@__crt_stdio_output@@AEAAXII_N@Z 0000000180015164 f i libucrt:output.obj
 0001:00014164       ??$type_case_integer_parse_into_buffer@I@?$output_processor@_WV?$stream_output_adapter@_W@__crt_stdio_output@@V?$standard_base@_WV?$stream_output_adapter@_W@__crt_stdio_output@@@2@@__crt_stdio_output@@AEAAXII_N@Z 0000000180015164 f i libucrt:output.obj
 0001:00014208       ??$type_case_integer_parse_into_buffer@_K@?$output_processor@DV?$stream_output_adapter@D@__crt_stdio_output@@V?$standard_base@DV?$stream_output_adapter@D@__crt_stdio_output@@@2@@__crt_stdio_output@@AEAAX_KI_N@Z 0000000180015208 f i libucrt:output.obj
 0001:00014298       ??$type_case_integer_parse_into_buffer@_K@?$output_processor@_WV?$stream_output_adapter@_W@__crt_stdio_output@@V?$standard_base@_WV?$stream_output_adapter@_W@__crt_stdio_output@@@2@@__crt_stdio_output@@AEAAX_KI_N@Z 0000000180015298 f i libucrt:output.obj
 0001:00014298       ??$type_case_integer_parse_into_buffer@_K@?$output_processor@_WV?$string_output_adapter@_W@__crt_stdio_output@@V?$standard_base@_WV?$string_output_adapter@_W@__crt_stdio_output@@@2@@__crt_stdio_output@@AEAAX_KI_N@Z 0000000180015298 f i libucrt:output.obj
 0001:0001433c       ??$write_multiple_characters@V?$stream_output_adapter@D@__crt_stdio_output@@D@__crt_stdio_output@@YAXAEBV?$stream_output_adapter@D@0@DHQEAH@Z 000000018001533c f i libucrt:output.obj
 0001:000143c8       ??$write_multiple_characters@V?$stream_output_adapter@_W@__crt_stdio_output@@D@__crt_stdio_output@@YAXAEBV?$stream_output_adapter@_W@0@DHQEAH@Z 00000001800153c8 f i libucrt:output.obj
 0001:0001445c       ??$write_multiple_characters@V?$string_output_adapter@_W@__crt_stdio_output@@D@__crt_stdio_output@@YAXAEBV?$string_output_adapter@_W@0@DHQEAH@Z 000000018001545c f i libucrt:output.obj
 0001:000144d8       ??0_LocaleUpdate@@QEAA@QEAU__crt_locale_pointers@@@Z 00000001800154d8 f i libucrt:output.obj
 0001:000147d8       ?crop_zeroes@__crt_stdio_output@@YAXPEADQEAU__crt_locale_pointers@@@Z 00000001800157d8 f i libucrt:output.obj
 0001:00014844       ?parse_int_from_format_string@?$output_processor@DV?$stream_output_adapter@D@__crt_stdio_output@@V?$standard_base@DV?$stream_output_adapter@D@__crt_stdio_output@@@2@@__crt_stdio_output@@AEAA_NQEAH@Z 0000000180015844 f i libucrt:output.obj
 0001:000148e8       ?parse_int_from_format_string@?$output_processor@_WV?$stream_output_adapter@_W@__crt_stdio_output@@V?$standard_base@_WV?$stream_output_adapter@_W@__crt_stdio_output@@@2@@__crt_stdio_output@@AEAA_NQEAH@Z 00000001800158e8 f i libucrt:output.obj
 0001:000148e8       ?parse_int_from_format_string@?$output_processor@_WV?$string_output_adapter@_W@__crt_stdio_output@@V?$standard_base@_WV?$string_output_adapter@_W@__crt_stdio_output@@@2@@__crt_stdio_output@@AEAA_NQEAH@Z 00000001800158e8 f i libucrt:output.obj
 0001:0001498c       ?process@?$output_processor@DV?$stream_output_adapter@D@__crt_stdio_output@@V?$standard_base@DV?$stream_output_adapter@D@__crt_stdio_output@@@2@@__crt_stdio_output@@QEAAHXZ 000000018001598c f i libucrt:output.obj
 0001:00014ba4       ?process@?$output_processor@_WV?$stream_output_adapter@_W@__crt_stdio_output@@V?$standard_base@_WV?$stream_output_adapter@_W@__crt_stdio_output@@@2@@__crt_stdio_output@@QEAAHXZ 0000000180015ba4 f i libucrt:output.obj
 0001:00014e10       ?process@?$output_processor@_WV?$string_output_adapter@_W@__crt_stdio_output@@V?$standard_base@_WV?$string_output_adapter@_W@__crt_stdio_output@@@2@@__crt_stdio_output@@QEAAHXZ 0000000180015e10 f i libucrt:output.obj
 0001:0001508c       ?state_case_normal@?$output_processor@DV?$stream_output_adapter@D@__crt_stdio_output@@V?$standard_base@DV?$stream_output_adapter@D@__crt_stdio_output@@@2@@__crt_stdio_output@@AEAA_NXZ 000000018001608c f i libucrt:output.obj
 0001:000150fc       ?state_case_normal_tchar@?$output_processor@DV?$stream_output_adapter@D@__crt_stdio_output@@V?$standard_base@DV?$stream_output_adapter@D@__crt_stdio_output@@@2@@__crt_stdio_output@@AEAA_ND@Z 00000001800160fc f i libucrt:output.obj
 0001:000151a0       ?state_case_size@?$output_processor@DV?$stream_output_adapter@D@__crt_stdio_output@@V?$standard_base@DV?$stream_output_adapter@D@__crt_stdio_output@@@2@@__crt_stdio_output@@AEAA_NXZ 00000001800161a0 f i libucrt:output.obj
 0001:00015314       ?state_case_size@?$output_processor@_WV?$stream_output_adapter@_W@__crt_stdio_output@@V?$standard_base@_WV?$stream_output_adapter@_W@__crt_stdio_output@@@2@@__crt_stdio_output@@AEAA_NXZ 0000000180016314 f i libucrt:output.obj
 0001:000154ac       ?state_case_size@?$output_processor@_WV?$string_output_adapter@_W@__crt_stdio_output@@V?$standard_base@_WV?$string_output_adapter@_W@__crt_stdio_output@@@2@@__crt_stdio_output@@AEAA_NXZ 00000001800164ac f i libucrt:output.obj
 0001:00015644       ?state_case_type@?$output_processor@DV?$stream_output_adapter@D@__crt_stdio_output@@V?$standard_base@DV?$stream_output_adapter@D@__crt_stdio_output@@@2@@__crt_stdio_output@@AEAA_NXZ 0000000180016644 f i libucrt:output.obj
 0001:000158c8       ?state_case_type@?$output_processor@_WV?$stream_output_adapter@_W@__crt_stdio_output@@V?$standard_base@_WV?$stream_output_adapter@_W@__crt_stdio_output@@@2@@__crt_stdio_output@@AEAA_NXZ 00000001800168c8 f i libucrt:output.obj
 0001:00015ba8       ?state_case_type@?$output_processor@_WV?$string_output_adapter@_W@__crt_stdio_output@@V?$standard_base@_WV?$string_output_adapter@_W@__crt_stdio_output@@@2@@__crt_stdio_output@@AEAA_NXZ 0000000180016ba8 f i libucrt:output.obj
 0001:00015e74       ?type_case_Z@?$output_processor@DV?$stream_output_adapter@D@__crt_stdio_output@@V?$standard_base@DV?$stream_output_adapter@D@__crt_stdio_output@@@2@@__crt_stdio_output@@AEAA_NXZ 0000000180016e74 f i libucrt:output.obj
 0001:00015ee8       ?type_case_Z@?$output_processor@_WV?$stream_output_adapter@_W@__crt_stdio_output@@V?$standard_base@_WV?$stream_output_adapter@_W@__crt_stdio_output@@@2@@__crt_stdio_output@@AEAA_NXZ 0000000180016ee8 f i libucrt:output.obj
 0001:00015ee8       ?type_case_Z@?$output_processor@_WV?$string_output_adapter@_W@__crt_stdio_output@@V?$standard_base@_WV?$string_output_adapter@_W@__crt_stdio_output@@@2@@__crt_stdio_output@@AEAA_NXZ 0000000180016ee8 f i libucrt:output.obj
 0001:00015f64       ?type_case_a@?$output_processor@DV?$stream_output_adapter@D@__crt_stdio_output@@V?$standard_base@DV?$stream_output_adapter@D@__crt_stdio_output@@@2@@__crt_stdio_output@@AEAA_NXZ 0000000180016f64 f i libucrt:output.obj
 0001:0001617c       ?type_case_a@?$output_processor@_WV?$stream_output_adapter@_W@__crt_stdio_output@@V?$standard_base@_WV?$stream_output_adapter@_W@__crt_stdio_output@@@2@@__crt_stdio_output@@AEAA_NXZ 000000018001717c f i libucrt:output.obj
 0001:0001617c       ?type_case_a@?$output_processor@_WV?$string_output_adapter@_W@__crt_stdio_output@@V?$standard_base@_WV?$string_output_adapter@_W@__crt_stdio_output@@@2@@__crt_stdio_output@@AEAA_NXZ 000000018001717c f i libucrt:output.obj
 0001:000163b8       ?type_case_c_tchar@?$output_processor@DV?$stream_output_adapter@D@__crt_stdio_output@@V?$standard_base@DV?$stream_output_adapter@D@__crt_stdio_output@@@2@@__crt_stdio_output@@AEAA_ND@Z 00000001800173b8 f i libucrt:output.obj
 0001:00016474       ?type_case_c_tchar@?$output_processor@_WV?$stream_output_adapter@_W@__crt_stdio_output@@V?$standard_base@_WV?$stream_output_adapter@_W@__crt_stdio_output@@@2@@__crt_stdio_output@@AEAA_N_W@Z 0000000180017474 f i libucrt:output.obj
 0001:00016474       ?type_case_c_tchar@?$output_processor@_WV?$string_output_adapter@_W@__crt_stdio_output@@V?$standard_base@_WV?$string_output_adapter@_W@__crt_stdio_output@@@2@@__crt_stdio_output@@AEAA_N_W@Z 0000000180017474 f i libucrt:output.obj
 0001:0001651c       ?type_case_integer@?$output_processor@DV?$stream_output_adapter@D@__crt_stdio_output@@V?$standard_base@DV?$stream_output_adapter@D@__crt_stdio_output@@@2@@__crt_stdio_output@@AEAA_NI_N@Z 000000018001751c f i libucrt:output.obj
 0001:000166e4       ?type_case_integer@?$output_processor@_WV?$stream_output_adapter@_W@__crt_stdio_output@@V?$standard_base@_WV?$stream_output_adapter@_W@__crt_stdio_output@@@2@@__crt_stdio_output@@AEAA_NI_N@Z 00000001800176e4 f i libucrt:output.obj
 0001:000166e4       ?type_case_integer@?$output_processor@_WV?$string_output_adapter@_W@__crt_stdio_output@@V?$standard_base@_WV?$string_output_adapter@_W@__crt_stdio_output@@@2@@__crt_stdio_output@@AEAA_NI_N@Z 00000001800176e4 f i libucrt:output.obj
 0001:000168b0       ?type_case_n@?$output_processor@DV?$stream_output_adapter@D@__crt_stdio_output@@V?$standard_base@DV?$stream_output_adapter@D@__crt_stdio_output@@@2@@__crt_stdio_output@@AEAA_NXZ 00000001800178b0 f i libucrt:output.obj
 0001:000168b0       ?type_case_n@?$output_processor@_WV?$stream_output_adapter@_W@__crt_stdio_output@@V?$standard_base@_WV?$stream_output_adapter@_W@__crt_stdio_output@@@2@@__crt_stdio_output@@AEAA_NXZ 00000001800178b0 f i libucrt:output.obj
 0001:000168b0       ?type_case_n@?$output_processor@_WV?$string_output_adapter@_W@__crt_stdio_output@@V?$standard_base@_WV?$string_output_adapter@_W@__crt_stdio_output@@@2@@__crt_stdio_output@@AEAA_NXZ 00000001800178b0 f i libucrt:output.obj
 0001:0001698c       ?type_case_s@?$output_processor@DV?$stream_output_adapter@D@__crt_stdio_output@@V?$standard_base@DV?$stream_output_adapter@D@__crt_stdio_output@@@2@@__crt_stdio_output@@AEAA_NXZ 000000018001798c f i libucrt:output.obj
 0001:00016a24       ?type_case_s@?$output_processor@_WV?$string_output_adapter@_W@__crt_stdio_output@@V?$standard_base@_WV?$string_output_adapter@_W@__crt_stdio_output@@@2@@__crt_stdio_output@@AEAA_NXZ 0000000180017a24 f i libucrt:output.obj
 0001:00016a24       ?type_case_s@?$output_processor@_WV?$stream_output_adapter@_W@__crt_stdio_output@@V?$standard_base@_WV?$stream_output_adapter@_W@__crt_stdio_output@@@2@@__crt_stdio_output@@AEAA_NXZ 0000000180017a24 f i libucrt:output.obj
 0001:00016aec       ?validate_stream_is_ansi_if_required@?$__acrt_stdio_char_traits@D@@SA_NQEAU_iobuf@@@Z 0000000180017aec f i libucrt:output.obj
 0001:00016b88       ?write_stored_string_tchar@?$output_processor@DV?$stream_output_adapter@D@__crt_stdio_output@@V?$standard_base@DV?$stream_output_adapter@D@__crt_stdio_output@@@2@@__crt_stdio_output@@AEAA_ND@Z 0000000180017b88 f i libucrt:output.obj
 0001:00016cac       ?write_stored_string_tchar@?$output_processor@_WV?$stream_output_adapter@_W@__crt_stdio_output@@V?$standard_base@_WV?$stream_output_adapter@_W@__crt_stdio_output@@@2@@__crt_stdio_output@@AEAA_N_W@Z 0000000180017cac f i libucrt:output.obj
 0001:00016db4       ?write_stored_string_tchar@?$output_processor@_WV?$string_output_adapter@_W@__crt_stdio_output@@V?$standard_base@_WV?$string_output_adapter@_W@__crt_stdio_output@@@2@@__crt_stdio_output@@AEAA_N_W@Z 0000000180017db4 f i libucrt:output.obj
 0001:00016ea0       ?write_string@?$string_output_adapter@_W@__crt_stdio_output@@QEBAXQEB_WHQEAHAEAV__crt_deferred_errno_cache@@@Z 0000000180017ea0 f i libucrt:output.obj
 0001:00016f48       ?write_string_impl@?$output_adapter_common@DV?$stream_output_adapter@D@__crt_stdio_output@@@__crt_stdio_output@@IEBAXQEBDHQEAHAEAV__crt_deferred_errno_cache@@@Z 0000000180017f48 f i libucrt:output.obj
 0001:00017040       ?write_string_impl@?$output_adapter_common@_WV?$stream_output_adapter@_W@__crt_stdio_output@@@__crt_stdio_output@@IEBAXQEB_WHQEAHAEAV__crt_deferred_errno_cache@@@Z 0000000180018040 f i libucrt:output.obj
 0001:00017144       __stdio_common_vfprintf    0000000180018144 f   libucrt:output.obj
 0001:000171d0       __stdio_common_vfwprintf   00000001800181d0 f   libucrt:output.obj
 0001:0001725c       __stdio_common_vswprintf   000000018001825c f   libucrt:output.obj
 0001:00017264       free                       0000000180018264 f   libucrt:free.obj
 0001:00017278       malloc                     0000000180018278 f   libucrt:malloc.obj
 0001:00017280       __ascii_stricmp            0000000180018280 f   libucrt:stricmp.obj
 0001:000172bc       _stricmp                   00000001800182bc f   libucrt:stricmp.obj
 0001:00017304       _stricmp_l                 0000000180018304 f   libucrt:stricmp.obj
 0001:0001738c       _initterm                  000000018001838c f   libucrt:initterm.obj
 0001:000173f0       _initterm_e                00000001800183f0 f   libucrt:initterm.obj
 0001:00017430       _seh_filter_dll            0000000180018430 f   libucrt:exception_filter.obj
 0001:00017444       _seh_filter_exe            0000000180018444 f   libucrt:exception_filter.obj
 0001:00017834       __acrt_initialize_thread_local_exit_callback 0000000180018834 f   libucrt:exit.obj
 0001:0001783c       _cexit                     000000018001883c f   libucrt:exit.obj
 0001:0001784c       _exit                      000000018001884c f   libucrt:exit.obj
 0001:00017858       _is_c_termination_complete 0000000180018858 f   libucrt:exit.obj
 0001:00017a24       __acrt_allocate_buffer_for_argv 0000000180018a24 f   libucrt:argv_parsing.obj
 0001:00017a84       _configure_narrow_argv     0000000180018a84 f   libucrt:argv_parsing.obj
 0001:00017dfc       __dcrt_uninitialize_environments_nolock 0000000180018dfc f   libucrt:environment_initialization.obj
 0001:00017e34       _initialize_narrow_environment 0000000180018e34 f   libucrt:environment_initialization.obj
 0001:00017f90       _execute_onexit_table      0000000180018f90 f   libucrt:onexit.obj
 0001:00017fcc       _initialize_onexit_table   0000000180018fcc f   libucrt:onexit.obj
 0001:0001802c       __acrt_uninitialize_command_line 000000018001902c f   libucrt:argv_data.obj
 0001:00018124       __acrt_initialize          0000000180019124 f   libucrt:initialization.obj
 0001:00018138       __acrt_thread_attach       0000000180019138 f   libucrt:initialization.obj
 0001:0001814c       __acrt_thread_detach       000000018001914c f   libucrt:initialization.obj
 0001:0001815c       __acrt_uninitialize        000000018001915c f   libucrt:initialization.obj
 0001:00018194       __acrt_uninitialize_critical 0000000180019194 f   libucrt:initialization.obj
 0001:000181a4       terminate                  00000001800191a4 f   libucrt:terminate.obj
 0001:000181c4       strcpy_s                   00000001800191c4 f   libucrt:strcpy_s.obj
 0001:00018224       ??$parse_integer@KV?$c_string_character_source@D@__crt_strtox@@@__crt_strtox@@YAKQEAU__crt_locale_pointers@@V?$c_string_character_source@D@0@H_N@Z 0000000180019224 f i libucrt:atox.obj
 0001:0001852c       ??$parse_integer@KV?$c_string_character_source@_W@__crt_strtox@@@__crt_strtox@@YAKQEAU__crt_locale_pointers@@V?$c_string_character_source@_W@0@H_N@Z 000000018001952c f i libucrt:atox.obj
 0001:00018bd4       _ischartype_l              0000000180019bd4 f i libucrt:atox.obj
 0001:00018c60       strncmp                    0000000180019c60 f   libucrt:strncmp.obj
 0001:00018ce0       calloc                     0000000180019ce0 f   libucrt:calloc.obj
 0001:00018ce8       wcsncmp                    0000000180019ce8 f   libucrt:wcsncmp.obj
 0001:00018d14       __acrt_call_reportfault    0000000180019d14 f   libucrt:invalid_parameter.obj
 0001:00018e70       __acrt_initialize_invalid_parameter_handler 0000000180019e70 f   libucrt:invalid_parameter.obj
 0001:00018e78       _invalid_parameter         0000000180019e78 f   libucrt:invalid_parameter.obj
 0001:00018f28       _invalid_parameter_noinfo  0000000180019f28 f   libucrt:invalid_parameter.obj
 0001:00018f48       _invoke_watson             0000000180019f48 f   libucrt:invalid_parameter.obj
 0001:00018f90       _query_app_type            0000000180019f90 f   libucrt:report_runtime_error.obj
 0001:00018f98       __acrt_errno_from_os_error 0000000180019f98 f   libucrt:errno.obj
 0001:00018fe0       __acrt_errno_map_os_error  0000000180019fe0 f   libucrt:errno.obj
 0001:00019030       __doserrno                 000000018001a030 f   libucrt:errno.obj
 0001:00019050       _errno                     000000018001a050 f   libucrt:errno.obj
 0001:000191b0       _itow_s                    000000018001a1b0 f   libucrt:xtoa.obj
 0001:000191d0       _set_error_mode            000000018001a1d0 f   libucrt:set_error_mode.obj
 0001:00019210       wcscat_s                   000000018001a210 f   libucrt:wcscat_s.obj
 0001:00019290       wcscpy_s                   000000018001a290 f   libucrt:wcscpy_s.obj
 0001:000192f8       wcsncat_s                  000000018001a2f8 f   libucrt:wcsncat_s.obj
 0001:000193f8       ??$__acrt_wcs_to_mbs_cp@U__crt_win32_buffer_no_resizing@@@@YAHQEB_WAEAV?$__crt_win32_buffer@DU__crt_win32_buffer_no_resizing@@@@I@Z 000000018001a3f8 f i libucrt:getmodulefilenamea.obj
 0001:0001950c       __acrt_GetModuleFileNameA  000000018001a50c f   libucrt:getmodulefilenamea.obj
 0001:0001962c       __acrt_show_wide_message_box 000000018001a62c f   libucrt:crtmbox.obj
 0001:000198ec       __acrt_stdio_flush_nolock  000000018001a8ec f   libucrt:fflush.obj
 0001:00019968       _fflush_nolock             000000018001a968 f   libucrt:fflush.obj
 0001:000199b4       _flushall                  000000018001a9b4 f   libucrt:fflush.obj
 0001:000199bc       fflush                     000000018001a9bc f   libucrt:fflush.obj
 0001:00019b44       setvbuf                    000000018001ab44 f   libucrt:setvbuf.obj
 0001:00019c28       __acrt_get_sigabrt_handler 000000018001ac28 f   libucrt:signal.obj
 0001:00019c58       __acrt_initialize_signal_handlers 000000018001ac58 f   libucrt:signal.obj
 0001:00019c78       raise                      000000018001ac78 f   libucrt:signal.obj
 0001:00019ee4       _calloc_base               000000018001aee4 f   libucrt:calloc_base.obj
 0001:00019f5c       _free_base                 000000018001af5c f   libucrt:free_base.obj
 0001:0001a174       __acrt_AppPolicyGetProcessTerminationMethodInternal 000000018001b174 f   libucrt:winapi_thunks.obj
 0001:0001a1c4       __acrt_AppPolicyGetShowDeveloperDiagnosticInternal 000000018001b1c4 f   libucrt:winapi_thunks.obj
 0001:0001a214       __acrt_AppPolicyGetWindowingModelInternal 000000018001b214 f   libucrt:winapi_thunks.obj
 0001:0001a264       __acrt_AreFileApisANSI     000000018001b264 f   libucrt:winapi_thunks.obj
 0001:0001a2a0       __acrt_FlsAlloc            000000018001b2a0 f   libucrt:winapi_thunks.obj
 0001:0001a2e8       __acrt_FlsFree             000000018001b2e8 f   libucrt:winapi_thunks.obj
 0001:0001a330       __acrt_FlsGetValue         000000018001b330 f   libucrt:winapi_thunks.obj
 0001:0001a378       __acrt_FlsSetValue         000000018001b378 f   libucrt:winapi_thunks.obj
 0001:0001a3cc       __acrt_InitializeCriticalSectionEx 000000018001b3cc f   libucrt:winapi_thunks.obj
 0001:0001a430       __acrt_LCMapStringEx       000000018001b430 f   libucrt:winapi_thunks.obj
 0001:0001a50c       __acrt_LocaleNameToLCID    000000018001b50c f   libucrt:winapi_thunks.obj
 0001:0001a55c       __acrt_MessageBoxW         000000018001b55c f   libucrt:winapi_thunks.obj
 0001:0001a5d0       __acrt_can_show_message_box 000000018001b5d0 f   libucrt:winapi_thunks.obj
 0001:0001a640       __acrt_get_parent_window   000000018001b640 f   libucrt:winapi_thunks.obj
 0001:0001a6b8       __acrt_initialize_winapi_thunks 000000018001b6b8 f   libucrt:winapi_thunks.obj
 0001:0001a6ec       __acrt_is_interactive      000000018001b6ec f   libucrt:winapi_thunks.obj
 0001:0001a7b4       __acrt_uninitialize_winapi_thunks 000000018001b7b4 f   libucrt:winapi_thunks.obj
 0001:0001a7f8       _fcloseall                 000000018001b7f8 f   libucrt:closeall.obj
 0001:0001a8ac       __acrt_stdio_free_buffer_nolock 000000018001b8ac f   libucrt:_freebuf.obj
 0001:0001aae8       __acrt_initialize_lowio    000000018001bae8 f   libucrt:ioinit.obj
 0001:0001ab24       __acrt_uninitialize_lowio  000000018001bb24 f   libucrt:ioinit.obj
 0001:0001ab64       _malloc_base               000000018001bb64 f   libucrt:malloc_base.obj
 0001:0001abc4       strtol                     000000018001bbc4 f   libucrt:strtox.obj
 0001:0001abf0       wcstol                     000000018001bbf0 f   libucrt:strtox.obj
 0001:0001ac1c       _mbtowc_l                  000000018001bc1c f   libucrt:mbtowc.obj
 0001:0001ad9c       mbtowc                     000000018001bd9c f   libucrt:mbtowc.obj
 0001:0001ada4       _wctomb_s_l                000000018001bda4 f   libucrt:wctomb.obj
 0001:0001af40       wctomb_s                   000000018001bf40 f   libucrt:wctomb.obj
 0001:0001af54       strnlen                    000000018001bf54 f   libucrt:strnlen.obj
 0001:0001b0a4       wcsnlen                    000000018001c0a4 f   libucrt:strnlen.obj
 0001:0001b5f4       __acrt_freeptd             000000018001c5f4 f   libucrt:per_thread_data.obj
 0001:0001b638       __acrt_getptd              000000018001c638 f   libucrt:per_thread_data.obj
 0001:0001b70c       __acrt_getptd_head         000000018001c70c f   libucrt:per_thread_data.obj
 0001:0001b7b4       __acrt_getptd_noexit       000000018001c7b4 f   libucrt:per_thread_data.obj
 0001:0001b880       __acrt_initialize_ptd      000000018001c880 f   libucrt:per_thread_data.obj
 0001:0001b8bc       __acrt_uninitialize_ptd    000000018001c8bc f   libucrt:per_thread_data.obj
 0001:0001b8e0       __acrt_update_locale_info  000000018001c8e0 f   libucrt:locale_update.obj
 0001:0001b914       __acrt_update_multibyte_info 000000018001c914 f   libucrt:locale_update.obj
 0001:0001c1e0       __acrt_fp_format           000000018001d1e0 f   libucrt:cvt.obj
 0001:0001c4e4       _fputwc_nolock             000000018001d4e4 f   libucrt:fputwc.obj
 0001:0001c660       _fileno                    000000018001d660 f   libucrt:fileno.obj
 0001:0001c688       _fputc_nolock              000000018001d688 f   libucrt:fputc.obj
 0001:0001c6a0       _get_printf_count_output   000000018001d6a0 f   libucrt:printf_count_output.obj
 0001:0001c6b8       __acrt_stdio_begin_temporary_buffering_nolock 000000018001d6b8 f   libucrt:_sftbuf.obj
 0001:0001c788       __acrt_stdio_end_temporary_buffering_nolock 000000018001d788 f   libucrt:_sftbuf.obj
 0001:0001c834       __acrt_set_locale_changed  000000018001d834 f   libucrt:wsetlocale.obj
 0001:0001c840       __acrt_uninitialize_locale 000000018001d840 f   libucrt:wsetlocale.obj
 0001:0001c870       __acrt_initialize_locks    000000018001d870 f   libucrt:locks.obj
 0001:0001c8b8       __acrt_lock                000000018001d8b8 f   libucrt:locks.obj
 0001:0001c8d4       __acrt_uninitialize_locks  000000018001d8d4 f   libucrt:locks.obj
 0001:0001c90c       __acrt_unlock              000000018001d90c f   libucrt:locks.obj
 0001:0001c928       __acrt_get_developer_information_policy 000000018001d928 f   libucrt:win_policies.obj
 0001:0001c97c       __acrt_get_process_end_policy 000000018001d97c f   libucrt:win_policies.obj
 0001:0001c9b8       __acrt_get_windowing_model_policy 000000018001d9b8 f   libucrt:win_policies.obj
 0001:0001ca38       ??$__acrt_mbs_to_wcs_cp@U__crt_win32_buffer_internal_dynamic_resizing@@@@YAHQEBDAEAV?$__crt_win32_buffer@_WU__crt_win32_buffer_internal_dynamic_resizing@@@@I@Z 000000018001da38 f i libucrt:argv_wildcards.obj
 0001:0001cbb0       ??$__acrt_wcs_to_mbs_cp@U__crt_win32_buffer_internal_dynamic_resizing@@@@YAHQEB_WAEAV?$__crt_win32_buffer@DU__crt_win32_buffer_internal_dynamic_resizing@@@@I@Z 000000018001dbb0 f i libucrt:argv_wildcards.obj
 0001:0001d3e0       __acrt_expand_narrow_argv_wildcards 000000018001e3e0 f   libucrt:argv_wildcards.obj
 0001:0001db14       __acrt_initialize_multibyte 000000018001eb14 f   libucrt:mbctype.obj
 0001:0001db74       __acrt_update_thread_multibyte_data 000000018001eb74 f   libucrt:mbctype.obj
 0001:0001db90       _setmbcp_nolock            000000018001eb90 f   libucrt:mbctype.obj
 0001:0001dec4       _ismbblead                 000000018001eec4 f   libucrt:ismbbyte.obj
 0001:0001ded8       __acrt_initialize_command_line 000000018001eed8 f   libucrt:argv_data.obj
 0001:0001df00       __acrt_MultiByteToWideChar 000000018001ef00 f   libucrt:multibytetowidechar.obj
 0001:0001df5c       __acrt_WideCharToMultiByte 000000018001ef5c f   libucrt:widechartomultibyte.obj
 0001:0001dff4       __dcrt_get_narrow_environment_from_os 000000018001eff4 f   libucrt:get_environment_from_os.obj
 0001:0001e0f8       _recalloc_base             000000018001f0f8 f   libucrt:recalloc.obj
 0001:0001e190       __acrt_initialize_heap     000000018001f190 f   libucrt:heap_handle.obj
 0001:0001e1ac       __acrt_uninitialize_heap   000000018001f1ac f   libucrt:heap_handle.obj
 0001:0001e1b8       __acrt_execute_initializers 000000018001f1b8 f   libucrt:shared_initialization.obj
 0001:0001e238       __acrt_execute_uninitializers 000000018001f238 f   libucrt:shared_initialization.obj
 0001:0001e274       __acrt_initialize_new_handler 000000018001f274 f   libucrt:new_handler.obj
 0001:0001e27c       _callnewh                  000000018001f27c f   libucrt:new_handler.obj
 0001:0001e2ac       _query_new_handler         000000018001f2ac f   libucrt:new_handler.obj
 0001:0001e2e0       __acrt_has_user_matherr    000000018001f2e0 f   libucrt:matherr.obj
 0001:0001e300       __acrt_initialize_user_matherr 000000018001f300 f   libucrt:matherr.obj
 0001:0001e308       __acrt_invoke_user_matherr 000000018001f308 f   libucrt:matherr.obj
 0001:0001e338       __pctype_func              000000018001f338 f   libucrt:ctype.obj
 0001:0001e368       iswctype                   000000018001f368 f   libucrt:iswctype.obj
 0001:0001e3d8       _isctype_l                 000000018001f3d8 f   libucrt:isctype.obj
 0001:0001e56c       _commit                    000000018001f56c f   libucrt:commit.obj
 0001:0001ee60       _write                     000000018001fe60 f   libucrt:write.obj
 0001:0001ef4c       _write_nolock              000000018001ff4c f   libucrt:write.obj
 0001:0001f228       _query_new_mode            0000000180020228 f   libucrt:new_mode.obj
 0001:0001f230       __acrt_DownlevelLocaleNameToLCID 0000000180020230 f   libucrt:lcidtoname_downlevel.obj
 0001:0001f2e0       _fclose_nolock             00000001800202e0 f   libucrt:fclose.obj
 0001:0001f364       fclose                     0000000180020364 f   libucrt:fclose.obj
 0001:0001f3c8       __acrt_lowio_create_handle_array 00000001800203c8 f   libucrt:osfinfo.obj
 0001:0001f470       __acrt_lowio_destroy_handle_array 0000000180020470 f   libucrt:osfinfo.obj
 0001:0001f4c0       __acrt_lowio_ensure_fh_exists 00000001800204c0 f   libucrt:osfinfo.obj
 0001:0001f568       __acrt_lowio_lock_fh       0000000180020568 f   libucrt:osfinfo.obj
 0001:0001f590       __acrt_lowio_unlock_fh     0000000180020590 f   libucrt:osfinfo.obj
 0001:0001f5b8       _free_osfhnd               00000001800205b8 f   libucrt:osfinfo.obj
 0001:0001f674       _get_osfhandle             0000000180020674 f   libucrt:osfinfo.obj
 0001:0001f6ec       _isleadbyte_l              00000001800206ec f i libucrt:_wctype.obj
 0001:0001f738       ?__mbrtowc_utf8@__crt_mbstring@@YA_KPEA_WPEBD_KPEAU_Mbstatet@@@Z 0000000180020738 f   libucrt:mbrtowc.obj
 0001:0001f774       ?__mbsrtowcs_utf8@__crt_mbstring@@YA_KPEA_WPEAPEBD_KPEAU_Mbstatet@@@Z 0000000180020774 f   libucrt:mbrtowc.obj
 0001:0001f8ec       ?__c32rtomb_utf8@__crt_mbstring@@YA_KPEAD_UPEAU_Mbstatet@@@Z 00000001800208ec f   libucrt:c32rtomb.obj
 0001:0001f9a0       __acrt_add_locale_ref      00000001800209a0 f   libucrt:locale_refcounting.obj
 0001:0001fa2c       __acrt_free_locale         0000000180020a2c f   libucrt:locale_refcounting.obj
 0001:0001fba4       __acrt_locale_add_lc_time_reference 0000000180020ba4 f   libucrt:locale_refcounting.obj
 0001:0001fbcc       __acrt_locale_free_lc_time_if_unreferenced 0000000180020bcc f   libucrt:locale_refcounting.obj
 0001:0001fc04       __acrt_locale_release_lc_time_reference 0000000180020c04 f   libucrt:locale_refcounting.obj
 0001:0001fc2c       __acrt_release_locale_ref  0000000180020c2c f   libucrt:locale_refcounting.obj
 0001:0001fcd4       __acrt_update_thread_locale_data 0000000180020cd4 f   libucrt:locale_refcounting.obj
 0001:0001fd40       _updatetlocinfoEx_nolock   0000000180020d40 f   libucrt:locale_refcounting.obj
 0001:0001fda8       __acrt_fp_strflt_to_string 0000000180020da8 f   libucrt:_fptostr.obj
 0001:0001fe90       ?divide@__crt_strtox@@YA_KAEAUbig_integer@1@AEBU21@@Z 0000000180020e90 f i libucrt:cfout.obj
 0001:000202bc       __acrt_fltout              00000001800212bc f   libucrt:cfout.obj
 0001:000217c0       __acrt_stdio_flush_and_write_narrow_nolock 00000001800227c0 f   libucrt:_flsbuf.obj
 0001:000218ac       __acrt_stdio_flush_and_write_wide_nolock 00000001800228ac f   libucrt:_flsbuf.obj
 0001:00021998       _isatty                    0000000180022998 f   libucrt:isatty.obj
 0001:000219f8       __acrt_locale_free_monetary 00000001800229f8 f   libucrt:initmon.obj
 0001:00021b04       __acrt_locale_free_numeric 0000000180022b04 f   libucrt:initnum.obj
 0001:00021bc8       __acrt_locale_free_time    0000000180022bc8 f   libucrt:inittime.obj
 0001:00021cd0       __acrt_GetStringTypeA      0000000180022cd0 f   libucrt:getstringtypea.obj
 0001:00021e60       qsort                      0000000180022e60 f   libucrt:qsort.obj
 0001:00022210       strncpy_s                  0000000180023210 f   libucrt:strncpy_s.obj
 0001:00022390       strpbrk                    0000000180023390 f   libucrt:strpbrk.obj
 0001:00022770       _mbsdec                    0000000180023770 f   libucrt:mbsdec.obj
 0001:00022778       _mbsdec_l                  0000000180023778 f   libucrt:mbsdec.obj
 0001:00022b24       __acrt_LCMapStringA        0000000180023b24 f   libucrt:lcmapstringa.obj
 0001:00022bd4       _msize_base                0000000180023bd4 f   libucrt:msize.obj
 0001:00022c10       _realloc_base              0000000180023c10 f   libucrt:realloc_base.obj
 0001:00022c8c       __acrt_GetStringTypeW      0000000180023c8c f   libucrt:getstringtypew.obj
 0001:00022e20       _lseeki64                  0000000180023e20 f   libucrt:lseek.obj
 0001:00022e28       _lseeki64_nolock           0000000180023e28 f   libucrt:lseek.obj
 0001:00022e30       _putwch_nolock             0000000180023e30 f   libucrt:putwch.obj
 0001:00022e6c       __ascii_wcsnicmp           0000000180023e6c f   libucrt:wcsnicmp.obj
 0001:00022f2c       _close                     0000000180023f2c f   libucrt:close.obj
 0001:00022fd0       _close_nolock              0000000180023fd0 f   libucrt:close.obj
 0001:00023090       ?__acrt_stdio_free_stream@@YAXV__crt_stdio_stream@@@Z 0000000180024090 f   libucrt:stream.obj
 0001:000230ac       ?__mbrtoc32_utf8@__crt_mbstring@@YA_KPEA_UPEBD_KPEAU_Mbstatet@@@Z 00000001800240ac f   libucrt:mbrtoc32.obj
 0001:00023288       fegetenv                   0000000180024288 f   libucrt:fegetenv.obj
 0001:000232a8       fesetenv                   00000001800242a8 f   libucrt:fesetenv.obj
 0001:000232f4       feholdexcept               00000001800242f4 f   libucrt:feholdexcept.obj
 0001:00023344       ceil                       0000000180024344 f   libucrt:ceil.obj
 0001:00023410       log10                      0000000180024410 f   libucrt:log10.obj
 0001:000239bc       __acrt_stdio_allocate_buffer_nolock 00000001800249bc f   libucrt:_getbuf.obj
 0001:00023a24       __strncnt                  0000000180024a24 f   libucrt:strncnt.obj
 0001:00023a3c       __dcrt_lowio_ensure_console_output_initialized 0000000180024a3c f   libucrt:initcon.obj
 0001:00023a90       __dcrt_terminate_console_output 0000000180024a90 f   libucrt:initcon.obj
 0001:00023aac       __dcrt_write_console       0000000180024aac f   libucrt:initcon.obj
 0001:00023b6c       __acrt_fenv_get_control    0000000180024b6c f   libucrt:_fenvutils.obj
 0001:00023c60       __acrt_fenv_get_status     0000000180024c60 f   libucrt:_fenvutils.obj
 0001:00023cb4       __acrt_fenv_set_control    0000000180024cb4 f   libucrt:_fenvutils.obj
 0001:00023dfc       __acrt_fenv_set_status     0000000180024dfc f   libucrt:_fenvutils.obj
 0001:00023e80       _clearfp                   0000000180024e80 f   libucrt:ieee.obj
 0001:00024014       _handle_error              0000000180025014 f   libucrt:libm_error.obj
 0001:0002413c       _handle_nan                000000018002513c f   libucrt:libm_error.obj
 0001:00024160       __acrt_initialize_fma3     0000000180025160 f   libucrt:fma3_available.obj
 0001:000241d0       _log10_special             00000001800251d0 f   libucrt:log_special.obj
 0001:000242a0       _get_fpsr                  00000001800252a0 f   libucrt:fpsr.obj
 0001:000242b0       _set_fpsr                  00000001800252b0 f   libucrt:fpsr.obj
 0001:000242ba       _fclrf                     00000001800252ba f   libucrt:fpsr.obj
 0001:000242ce       _frnd                      00000001800252ce f   libucrt:fpsr.obj
 0001:000242f0       _raise_exc                 00000001800252f0 f   libucrt:fpexcept.obj
 0001:00024318       _raise_exc_ex              0000000180025318 f   libucrt:fpexcept.obj
 0001:00024628       _set_errno_from_matherr    0000000180025628 f   libucrt:fpexcept.obj
 0001:00024658       _clrfp                     0000000180025658 f   libucrt:fpctrl.obj
 0001:00024678       _ctrlfp                    0000000180025678 f   libucrt:fpctrl.obj
 0001:000246f4       _set_statfp                00000001800256f4 f   libucrt:fpctrl.obj
 0001:00024714       _statfp                    0000000180025714 f   libucrt:fpctrl.obj
 0001:00024725       IsProcessorFeaturePresent  0000000180025725 f   kernel32:KERNEL32.dll
 0001:0002472c       ?DloadAcquireSectionWriteAccess@@YAXXZ 000000018002572c f i DelayImp:delayhlp.obj
 0001:000247d8       ?DloadGetSRWLockFunctionPointers@@YAEXZ 00000001800257d8 f i DelayImp:delayhlp.obj
 0001:00024874       ?DloadMakePermanentImageCommit@@YAXPEAX_K@Z 0000000180025874 f i DelayImp:delayhlp.obj
 0001:0002490c       ?DloadObtainSection@@YAPEAXPEAK0@Z 000000018002590c f i DelayImp:delayhlp.obj
 0001:000249a8       ?DloadProtectSection@@YAXKPEAK@Z 00000001800259a8 f i DelayImp:delayhlp.obj
 0001:00024a38       ?DloadReleaseSectionWriteAccess@@YAXXZ 0000000180025a38 f i DelayImp:delayhlp.obj
 0001:00024acc       __delayLoadHelper2         0000000180025acc f   DelayImp:delayhlp.obj
 0001:00024db0       _FindPESection             0000000180025db0 f   LIBCMT:pesect.obj
 0001:00024e00       _IsNonwritableInCurrentImage 0000000180025e00 f   LIBCMT:pesect.obj
 0001:00024e50       _ValidateImageBase         0000000180025e50 f   LIBCMT:pesect.obj
 0001:00024e80       __GSHandlerCheck           0000000180025e80 f   LIBCMT:gshandler.obj
 0001:00024ea0       __GSHandlerCheckCommon     0000000180025ea0 f   LIBCMT:gshandler.obj
 0001:00024f10       __chkstk                   0000000180025f10 f   LIBCMT:chkstk.obj
 0001:00024f10       _alloca_probe              0000000180025f10 f   LIBCMT:chkstk.obj
 0001:00024f64       strrchr                    0000000180025f64 f   libvcruntime:strrchr.obj
 0001:000250b0       memcmp                     00000001800260b0 f   libvcruntime:memcmp.obj
 0001:00025190       _guard_dispatch_icall_nop  0000000180026190 f   LIBCMT:guard_dispatch.obj
 0002:00000000       __imp_GetModuleHandleA     0000000180027000     kernel32:KERNEL32.dll
 0002:00000008       __imp_LoadLibraryExA       0000000180027008     kernel32:KERNEL32.dll
 0002:00000010       __imp_RtlCaptureContext    0000000180027010     kernel32:KERNEL32.dll
 0002:00000018       __imp_RtlLookupFunctionEntry 0000000180027018     kernel32:KERNEL32.dll
 0002:00000020       __imp_RtlVirtualUnwind     0000000180027020     kernel32:KERNEL32.dll
 0002:00000028       __imp_UnhandledExceptionFilter 0000000180027028     kernel32:KERNEL32.dll
 0002:00000030       __imp_SetUnhandledExceptionFilter 0000000180027030     kernel32:KERNEL32.dll
 0002:00000038       __imp_GetCurrentProcess    0000000180027038     kernel32:KERNEL32.dll
 0002:00000040       __imp_TerminateProcess     0000000180027040     kernel32:KERNEL32.dll
 0002:00000048       __imp_IsProcessorFeaturePresent 0000000180027048     kernel32:KERNEL32.dll
 0002:00000050       __imp_QueryPerformanceCounter 0000000180027050     kernel32:KERNEL32.dll
 0002:00000058       __imp_GetCurrentProcessId  0000000180027058     kernel32:KERNEL32.dll
 0002:00000060       __imp_GetCurrentThreadId   0000000180027060     kernel32:KERNEL32.dll
 0002:00000068       __imp_GetSystemTimeAsFileTime 0000000180027068     kernel32:KERNEL32.dll
 0002:00000070       __imp_InitializeSListHead  0000000180027070     kernel32:KERNEL32.dll
 0002:00000078       __imp_IsDebuggerPresent    0000000180027078     kernel32:KERNEL32.dll
 0002:00000080       __imp_GetStartupInfoW      0000000180027080     kernel32:KERNEL32.dll
 0002:00000088       __imp_GetModuleHandleW     0000000180027088     kernel32:KERNEL32.dll
 0002:00000090       __imp_RtlUnwindEx          0000000180027090     kernel32:KERNEL32.dll
 0002:00000098       __imp_InterlockedFlushSList 0000000180027098     kernel32:KERNEL32.dll
 0002:000000a0       __imp_GetLastError         00000001800270a0     kernel32:KERNEL32.dll
 0002:000000a8       __imp_SetLastError         00000001800270a8     kernel32:KERNEL32.dll
 0002:000000b0       __imp_EnterCriticalSection 00000001800270b0     kernel32:KERNEL32.dll
 0002:000000b8       __imp_LeaveCriticalSection 00000001800270b8     kernel32:KERNEL32.dll
 0002:000000c0       __imp_DeleteCriticalSection 00000001800270c0     kernel32:KERNEL32.dll
 0002:000000c8       __imp_InitializeCriticalSectionAndSpinCount 00000001800270c8     kernel32:KERNEL32.dll
 0002:000000d0       __imp_TlsAlloc             00000001800270d0     kernel32:KERNEL32.dll
 0002:000000d8       __imp_TlsGetValue          00000001800270d8     kernel32:KERNEL32.dll
 0002:000000e0       __imp_TlsSetValue          00000001800270e0     kernel32:KERNEL32.dll
 0002:000000e8       __imp_TlsFree              00000001800270e8     kernel32:KERNEL32.dll
 0002:000000f0       __imp_FreeLibrary          00000001800270f0     kernel32:KERNEL32.dll
 0002:000000f8       __imp_GetProcAddress       00000001800270f8     kernel32:KERNEL32.dll
 0002:00000100       __imp_LoadLibraryExW       0000000180027100     kernel32:KERNEL32.dll
 0002:00000108       __imp_RaiseException       0000000180027108     kernel32:KERNEL32.dll
 0002:00000110       __imp_GetStdHandle         0000000180027110     kernel32:KERNEL32.dll
 0002:00000118       __imp_GetFileType          0000000180027118     kernel32:KERNEL32.dll
 0002:00000120       __imp_GetModuleFileNameW   0000000180027120     kernel32:KERNEL32.dll
 0002:00000128       __imp_GetModuleHandleExW   0000000180027128     kernel32:KERNEL32.dll
 0002:00000130       __imp_WriteConsoleW        0000000180027130     kernel32:KERNEL32.dll
 0002:00000138       __imp_ExitProcess          0000000180027138     kernel32:KERNEL32.dll
 0002:00000140       __imp_WriteFile            0000000180027140     kernel32:KERNEL32.dll
 0002:00000148       __imp_OutputDebugStringW   0000000180027148     kernel32:KERNEL32.dll
 0002:00000150       __imp_HeapAlloc            0000000180027150     kernel32:KERNEL32.dll
 0002:00000158       __imp_HeapFree             0000000180027158     kernel32:KERNEL32.dll
 0002:00000160       __imp_LCMapStringW         0000000180027160     kernel32:KERNEL32.dll
 0002:00000168       __imp_FindClose            0000000180027168     kernel32:KERNEL32.dll
 0002:00000170       __imp_FindFirstFileExW     0000000180027170     kernel32:KERNEL32.dll
 0002:00000178       __imp_FindNextFileW        0000000180027178     kernel32:KERNEL32.dll
 0002:00000180       __imp_IsValidCodePage      0000000180027180     kernel32:KERNEL32.dll
 0002:00000188       __imp_GetACP               0000000180027188     kernel32:KERNEL32.dll
 0002:00000190       __imp_GetOEMCP             0000000180027190     kernel32:KERNEL32.dll
 0002:00000198       __imp_GetCPInfo            0000000180027198     kernel32:KERNEL32.dll
 0002:000001a0       __imp_GetCommandLineA      00000001800271a0     kernel32:KERNEL32.dll
 0002:000001a8       __imp_GetCommandLineW      00000001800271a8     kernel32:KERNEL32.dll
 0002:000001b0       __imp_MultiByteToWideChar  00000001800271b0     kernel32:KERNEL32.dll
 0002:000001b8       __imp_WideCharToMultiByte  00000001800271b8     kernel32:KERNEL32.dll
 0002:000001c0       __imp_GetEnvironmentStringsW 00000001800271c0     kernel32:KERNEL32.dll
 0002:000001c8       __imp_FreeEnvironmentStringsW 00000001800271c8     kernel32:KERNEL32.dll
 0002:000001d0       __imp_GetProcessHeap       00000001800271d0     kernel32:KERNEL32.dll
 0002:000001d8       __imp_FlushFileBuffers     00000001800271d8     kernel32:KERNEL32.dll
 0002:000001e0       __imp_GetConsoleCP         00000001800271e0     kernel32:KERNEL32.dll
 0002:000001e8       __imp_GetConsoleMode       00000001800271e8     kernel32:KERNEL32.dll
 0002:000001f0       __imp_SetStdHandle         00000001800271f0     kernel32:KERNEL32.dll
 0002:000001f8       __imp_GetFileSizeEx        00000001800271f8     kernel32:KERNEL32.dll
 0002:00000200       __imp_SetFilePointerEx     0000000180027200     kernel32:KERNEL32.dll
 0002:00000208       __imp_GetStringTypeW       0000000180027208     kernel32:KERNEL32.dll
 0002:00000210       __imp_HeapSize             0000000180027210     kernel32:KERNEL32.dll
 0002:00000218       __imp_HeapReAlloc          0000000180027218     kernel32:KERNEL32.dll
 0002:00000220       __imp_CloseHandle          0000000180027220     kernel32:KERNEL32.dll
 0002:00000228       __imp_CreateFileW          0000000180027228     kernel32:KERNEL32.dll
 0002:00000230       __imp_GetSystemInfo        0000000180027230     kernel32:KERNEL32.dll
 0002:00000238       __imp_VirtualProtect       0000000180027238     kernel32:KERNEL32.dll
 0002:00000240       __imp_VirtualQuery         0000000180027240     kernel32:KERNEL32.dll
 0002:00000248       \177KERNEL32_NULL_THUNK_DATA 0000000180027248     kernel32:KERNEL32.dll
 0002:00000250       __guard_check_icall_fptr   0000000180027250     LIBCMT:guard_support.obj
 0002:00000258       __guard_dispatch_icall_fptr 0000000180027258     LIBCMT:guard_support.obj
 0002:00000260       __xc_a                     0000000180027260     LIBCMT:initializers.obj
 0002:00000268       _register_secp256k1_       0000000180027268     addon.obj
 0002:00000270       __xc_z                     0000000180027270     LIBCMT:initializers.obj
 0002:00000278       __xi_a                     0000000180027278     LIBCMT:initializers.obj
 0002:00000280       __acrt_stdio_initializer   0000000180027280     libucrt:stdio_initializer.obj
 0002:00000288       __acrt_multibyte_initializer 0000000180027288     libucrt:multibyte_initializer.obj
 0002:00000290       __acrt_tran_fma3_initializer 0000000180027290     libucrt:fma3_initializer.obj
 0002:00000298       __xi_z                     0000000180027298     LIBCMT:initializers.obj
 0002:000002a0       __xp_a                     00000001800272a0     LIBCMT:initializers.obj
 0002:000002a8       __acrt_locale_terminator   00000001800272a8     libucrt:locale_initializer.obj
 0002:000002b0       __dcrt_console_output_terminator 00000001800272b0     libucrt:console_output_initializer.obj
 0002:000002b8       __acrt_stdio_terminator    00000001800272b8     libucrt:stdio_initializer.obj
 0002:000002c0       __xp_z                     00000001800272c0     LIBCMT:initializers.obj
 0002:000002c8       __xt_a                     00000001800272c8     LIBCMT:initializers.obj
 0002:000002d0       __xt_z                     00000001800272d0     LIBCMT:initializers.obj
 0002:000002e0       __sz_node_exe              00000001800272e0     node:node.exe
 0002:000002f0       _pDefaultRawDllMain        00000001800272f0     LIBCMT:dll_dllmain.obj
 0002:000002f0       _pRawDllMain               00000001800272f0     LIBCMT:dll_dllmain.obj
 0002:00000310       __xmm@ffffffffffffffffffffffffffffffff 0000000180027310     LIBCMT:utility.obj
 0002:00000320       _pDestructExceptionObject  0000000180027320     libvcruntime:ehhelpers.obj
 0002:00000a30       ??_C@_08EHJDFFNH@__based?$CI@ 0000000180027a30     libvcruntime:undname.obj
 0002:00000a40       ??_C@_07KOLFKCDI@__cdecl@  0000000180027a40     libvcruntime:undname.obj
 0002:00000a48       ??_C@_08GHMPAG@__pascal@   0000000180027a48     libvcruntime:undname.obj
 0002:00000a58       ??_C@_09IFJBGAPI@__stdcall@ 0000000180027a58     libvcruntime:undname.obj
 0002:00000a68       ??_C@_0L@NPHFGOKO@__thiscall@ 0000000180027a68     libvcruntime:undname.obj
 0002:00000a78       ??_C@_0L@JMKHOMEK@__fastcall@ 0000000180027a78     libvcruntime:undname.obj
 0002:00000a88       ??_C@_0N@BCKKPABJ@__vectorcall@ 0000000180027a88     libvcruntime:undname.obj
 0002:00000a98       ??_C@_09HIJEGCPM@__clrcall@ 0000000180027a98     libvcruntime:undname.obj
 0002:00000aa4       ??_C@_06GHPCKEAG@__eabi@   0000000180027aa4     libvcruntime:undname.obj
 0002:00000ab0       ??_C@_09IOPIDJLG@__swift_1@ 0000000180027ab0     libvcruntime:undname.obj
 0002:00000ac0       ??_C@_09KFNFGKHF@__swift_2@ 0000000180027ac0     libvcruntime:undname.obj
 0002:00000ad0       ??_C@_07JOMMBBKO@__ptr64@  0000000180027ad0     libvcruntime:undname.obj
 0002:00000ad8       ??_C@_0L@PILCLIHE@__restrict@ 0000000180027ad8     libvcruntime:undname.obj
 0002:00000ae8       ??_C@_0M@GFIIJFMG@__unaligned@ 0000000180027ae8     libvcruntime:undname.obj
 0002:00000af8       ??_C@_09DHDLOLLB@restrict?$CI@ 0000000180027af8     libvcruntime:undname.obj
 0002:00000b02       ??_C@_00CNPNBAHC@@         0000000180027b02     libvcruntime:undname.obj
 0002:00000b04       ??_C@_04NIHEBCM@?5new@     0000000180027b04     libvcruntime:undname.obj
 0002:00000b10       ??_C@_07FPCDHGMM@?5delete@ 0000000180027b10     libvcruntime:undname.obj
 0002:00000b18       ??_C@_01NEMOKFLO@?$DN@     0000000180027b18     libvcruntime:undname.obj
 0002:00000b1c       ??_C@_02GPIOPFAK@?$DO?$DO@ 0000000180027b1c     libvcruntime:undname.obj
 0002:00000b20       ??_C@_02FODMEDOG@?$DM?$DM@ 0000000180027b20     libvcruntime:undname.obj
 0002:00000b24       ??_C@_01DCLJPIOD@?$CB@     0000000180027b24     libvcruntime:undname.obj
 0002:00000b28       ??_C@_02EGOFBIJA@?$DN?$DN@ 0000000180027b28     libvcruntime:undname.obj
 0002:00000b2c       ??_C@_02FDNJECIE@?$CB?$DN@ 0000000180027b2c     libvcruntime:undname.obj
 0002:00000b30       ??_C@_02GPECMEKF@?$FL?$FN@ 0000000180027b30     libvcruntime:undname.obj
 0002:00000b38       ??_C@_08LHJFAFGD@operator@ 0000000180027b38     libvcruntime:undname.obj
 0002:00000b44       ??_C@_02HBOOOICD@?9?$DO@   0000000180027b44     libvcruntime:undname.obj
 0002:00000b48       ??_C@_01NBENCBCI@?$CK@     0000000180027b48     libvcruntime:undname.obj
 0002:00000b4c       ??_C@_02ECNGHCIF@?$CL?$CL@ 0000000180027b4c     libvcruntime:undname.obj
 0002:00000b50       ??_C@_02BAABKJLB@?9?9@     0000000180027b50     libvcruntime:undname.obj
 0002:00000b54       ??_C@_01JOAMLHOP@?9@       0000000180027b54     libvcruntime:undname.obj
 0002:00000b58       ??_C@_01MIFGBAGJ@?$CL@     0000000180027b58     libvcruntime:undname.obj
 0002:00000b5c       ??_C@_01HNPIGOCE@?$CG@     0000000180027b5c     libvcruntime:undname.obj
 0002:00000b60       ??_C@_03MNHNFDLC@?9?$DO?$CK@ 0000000180027b60     libvcruntime:undname.obj
 0002:00000b64       ??_C@_01KMDKNFGN@?1@       0000000180027b64     libvcruntime:undname.obj
 0002:00000b68       ??_C@_01FGNFDNOH@?$CF@     0000000180027b68     libvcruntime:undname.obj
 0002:00000b6c       ??_C@_01MNNFJEPP@?$DM@     0000000180027b6c     libvcruntime:undname.obj
 0002:00000b70       ??_C@_02EHCHHCKH@?$DM?$DN@ 0000000180027b70     libvcruntime:undname.obj
 0002:00000b74       ??_C@_01PPODPGHN@?$DO@     0000000180027b74     libvcruntime:undname.obj
 0002:00000b78       ??_C@_02EEKDKGMJ@?$DO?$DN@ 0000000180027b78     libvcruntime:undname.obj
 0002:00000b7c       ??_C@_01IHBHIGKO@?0@       0000000180027b7c     libvcruntime:undname.obj
 0002:00000b80       ??_C@_02HCKGKOFO@?$CI?$CJ@ 0000000180027b80     libvcruntime:undname.obj
 0002:00000b84       ??_C@_01PJKLJHI@?$HO@      0000000180027b84     libvcruntime:undname.obj
 0002:00000b88       ??_C@_01JKBOJNNK@?$FO@     0000000180027b88     libvcruntime:undname.obj
 0002:00000b8c       ??_C@_01DNKMNLPK@?$HM@     0000000180027b8c     libvcruntime:undname.obj
 0002:00000b90       ??_C@_02PPKAJPJL@?$CG?$CG@ 0000000180027b90     libvcruntime:undname.obj
 0002:00000b94       ??_C@_02NONPIBCD@?$HM?$HM@ 0000000180027b94     libvcruntime:undname.obj
 0002:00000b98       ??_C@_02FPIMKNGF@?$CK?$DN@ 0000000180027b98     libvcruntime:undname.obj
 0002:00000b9c       ??_C@_02FOEOMHFC@?$CL?$DN@ 0000000180027b9c     libvcruntime:undname.obj
 0002:00000ba0       ??_C@_02FKMDLLOA@?9?$DN@   0000000180027ba0     libvcruntime:undname.obj
 0002:00000ba4       ??_C@_02FJEHGPIO@?1?$DN@   0000000180027ba4     libvcruntime:undname.obj
 0002:00000ba8       ??_C@_02FENAOKFI@?$CF?$DN@ 0000000180027ba8     libvcruntime:undname.obj
 0002:00000bac       ??_C@_03IKFCCPFF@?$DO?$DO?$DN@ 0000000180027bac     libvcruntime:undname.obj
 0002:00000bb0       ??_C@_03CDNPDDLA@?$DM?$DM?$DN@ 0000000180027bb0     libvcruntime:undname.obj
 0002:00000bb4       ??_C@_02FGJGFEAB@?$CG?$DN@ 0000000180027bb4     libvcruntime:undname.obj
 0002:00000bb8       ??_C@_02DHLNPPGH@?$HM?$DN@ 0000000180027bb8     libvcruntime:undname.obj
 0002:00000bbc       ??_C@_02MHEGNOJ@?$FO?$DN@  0000000180027bbc     libvcruntime:undname.obj
 0002:00000bc0       ??_C@_09IFPLHPGF@?$GAvftable?8@ 0000000180027bc0     libvcruntime:undname.obj
 0002:00000bd0       ??_C@_09BLBHBJP@?$GAvbtable?8@ 0000000180027bd0     libvcruntime:undname.obj
 0002:00000be0       ??_C@_07FEEIOKP@?$GAvcall?8@ 0000000180027be0     libvcruntime:undname.obj
 0002:00000be8       ??_C@_08LLFFHHDJ@?$GAtypeof?8@ 0000000180027be8     libvcruntime:undname.obj
 0002:00000bf8       ??_C@_0BF@KDPPACIK@?$GAlocal?5static?5guard?8@ 0000000180027bf8     libvcruntime:undname.obj
 0002:00000c10       ??_C@_08OBABFOLI@?$GAstring?8@ 0000000180027c10     libvcruntime:undname.obj
 0002:00000c20       ??_C@_0BD@JDLKDPAB@?$GAvbase?5destructor?8@ 0000000180027c20     libvcruntime:undname.obj
 0002:00000c38       ??_C@_0BN@DEGPLNFK@?$GAvector?5deleting?5destructor?8@ 0000000180027c38     libvcruntime:undname.obj
 0002:00000c58       ??_C@_0BO@OBMKPJIG@?$GAdefault?5constructor?5closure?8@ 0000000180027c58     libvcruntime:undname.obj
 0002:00000c78       ??_C@_0BN@IMDCHIKM@?$GAscalar?5deleting?5destructor?8@ 0000000180027c78     libvcruntime:undname.obj
 0002:00000c98       ??_C@_0BO@PFGOCPJJ@?$GAvector?5constructor?5iterator?8@ 0000000180027c98     libvcruntime:undname.obj
 0002:00000cb8       ??_C@_0BN@LFPFMEDL@?$GAvector?5destructor?5iterator?8@ 0000000180027cb8     libvcruntime:undname.obj
 0002:00000cd8       ??_C@_0CE@IKBNEHA@?$GAvector?5vbase?5constructor?5itera@ 0000000180027cd8     libvcruntime:undname.obj
 0002:00000d00       ??_C@_0BL@NILFHHPC@?$GAvirtual?5displacement?5map?8@ 0000000180027d00     libvcruntime:undname.obj
 0002:00000d20       ??_C@_0CB@JONCMFFK@?$GAeh?5vector?5constructor?5iterator@ 0000000180027d20     libvcruntime:undname.obj
 0002:00000d48       ??_C@_0CA@GCEOPDGL@?$GAeh?5vector?5destructor?5iterator?8@ 0000000180027d48     libvcruntime:undname.obj
 0002:00000d68       ??_C@_0CH@OOJPLCPH@?$GAeh?5vector?5vbase?5constructor?5it@ 0000000180027d68     libvcruntime:undname.obj
 0002:00000d90       ??_C@_0BL@LLKPOHJI@?$GAcopy?5constructor?5closure?8@ 0000000180027d90     libvcruntime:undname.obj
 0002:00000db0       ??_C@_0BA@KBCDOMBN@?$GAudt?5returning?8@ 0000000180027db0     libvcruntime:undname.obj
 0002:00000dc0       ??_C@_03KLGMFNMG@?$GAEH@   0000000180027dc0     libvcruntime:undname.obj
 0002:00000dc4       ??_C@_05KHLCHHI@?$GARTTI@  0000000180027dc4     libvcruntime:undname.obj
 0002:00000dd0       ??_C@_0BA@KKLDJDLB@?$GAlocal?5vftable?8@ 0000000180027dd0     libvcruntime:undname.obj
 0002:00000de0       ??_C@_0CE@IIHCMGGL@?$GAlocal?5vftable?5constructor?5clos@ 0000000180027de0     libvcruntime:undname.obj
 0002:00000e04       ??_C@_06FHBGPFGH@?5new?$FL?$FN@ 0000000180027e04     libvcruntime:undname.obj
 0002:00000e10       ??_C@_09LBNFPBCA@?5delete?$FL?$FN@ 0000000180027e10     libvcruntime:undname.obj
 0002:00000e20       ??_C@_0P@HJKNJFNN@?$GAomni?5callsig?8@ 0000000180027e20     libvcruntime:undname.obj
 0002:00000e30       ??_C@_0BL@CNOONJFP@?$GAplacement?5delete?5closure?8@ 0000000180027e30     libvcruntime:undname.obj
 0002:00000e50       ??_C@_0BN@CKNJLHMB@?$GAplacement?5delete?$FL?$FN?5closure?8@ 0000000180027e50     libvcruntime:undname.obj
 0002:00000e70       ??_C@_0CG@CFDHKGGD@?$GAmanaged?5vector?5constructor?5ite@ 0000000180027e70     libvcruntime:undname.obj
 0002:00000e98       ??_C@_0CF@IMGKMJNO@?$GAmanaged?5vector?5destructor?5iter@ 0000000180027e98     libvcruntime:undname.obj
 0002:00000ec0       ??_C@_0CG@HLDDJMAG@?$GAeh?5vector?5copy?5constructor?5ite@ 0000000180027ec0     libvcruntime:undname.obj
 0002:00000ee8       ??_C@_0CM@FCBBDIGB@?$GAeh?5vector?5vbase?5copy?5construct@ 0000000180027ee8     libvcruntime:undname.obj
 0002:00000f18       ??_C@_0BL@CLIPGLGB@?$GAdynamic?5initializer?5for?5?8@ 0000000180027f18     libvcruntime:undname.obj
 0002:00000f38       ??_C@_0CB@PDBIFEP@?$GAdynamic?5atexit?5destructor?5for?5@ 0000000180027f38     libvcruntime:undname.obj
 0002:00000f60       ??_C@_0CD@CGAJBKEJ@?$GAvector?5copy?5constructor?5iterat@ 0000000180027f60     libvcruntime:undname.obj
 0002:00000f88       ??_C@_0CJ@GJELGAMM@?$GAvector?5vbase?5copy?5constructor?5@ 0000000180027f88     libvcruntime:undname.obj
 0002:00000fb8       ??_C@_0CL@FGIJHLCE@?$GAmanaged?5vector?5copy?5constructo@ 0000000180027fb8     libvcruntime:undname.obj
 0002:00000fe8       ??_C@_0BM@PMGGMLDN@?$GAlocal?5static?5thread?5guard?8@ 0000000180027fe8     libvcruntime:undname.obj
 0002:00001008       ??_C@_0N@BDNMDMOL@operator?5?$CC?$CC?5@ 0000000180028008     libvcruntime:undname.obj
 0002:00001018       ??_C@_0BC@GGEBGALA@operator?5co_await@ 0000000180028018     libvcruntime:undname.obj
 0002:00001030       ??_C@_0M@GAAIMMOH@operator?$DM?$DN?$DO@ 0000000180028030     libvcruntime:undname.obj
 0002:00001040       ??_C@_0BC@DAFEJGAK@?5Type?5Descriptor?8@ 0000000180028040     libvcruntime:undname.obj
 0002:00001058       ??_C@_0BM@LDKODKLH@?5Base?5Class?5Descriptor?5at?5?$CI@ 0000000180028058     libvcruntime:undname.obj
 0002:00001078       ??_C@_0BD@LGICGFMM@?5Base?5Class?5Array?8@ 0000000180028078     libvcruntime:undname.obj
 0002:00001090       ??_C@_0BN@MECKDCOJ@?5Class?5Hierarchy?5Descriptor?8@ 0000000180028090     libvcruntime:undname.obj
 0002:000010b0       ??_C@_0BK@CFCOFLF@?5Complete?5Object?5Locator?8@ 00000001800280b0     libvcruntime:undname.obj
 0002:000010d0       ??_C@_0BG@JNJLAMPM@?$GAanonymous?5namespace?8@ 00000001800280d0     libvcruntime:undname.obj
 0002:00001100       ??_C@_1DM@KHCHBNEB@?$AAa?$AAp?$AAi?$AA?9?$AAm?$AAs?$AA?9?$AAw?$AAi?$AAn?$AA?9?$AAc?$AAo?$AAr?$AAe@ 0000000180028100     libvcruntime:winapi_downlevel.obj
 0002:00001140       ??_C@_1DK@LPPGFMPP@?$AAa?$AAp?$AAi?$AA?9?$AAm?$AAs?$AA?9?$AAw?$AAi?$AAn?$AA?9?$AAc?$AAo?$AAr?$AAe@ 0000000180028140     libvcruntime:winapi_downlevel.obj
 0002:00001180       ??_C@_1BC@GDMECMAK@?$AAk?$AAe?$AAr?$AAn?$AAe?$AAl?$AA3?$AA2@ 0000000180028180     libvcruntime:winapi_downlevel.obj
 0002:00001198       ??_C@_1BA@PFFKHIOG@?$AAa?$AAp?$AAi?$AA?9?$AAm?$AAs?$AA?9@ 0000000180028198     libvcruntime:winapi_downlevel.obj
 0002:000011b0       ??_C@_08KNHFBNJ@FlsAlloc@  00000001800281b0     libvcruntime:winapi_downlevel.obj
 0002:000011c8       ??_C@_07PEJMOBNF@FlsFree@  00000001800281c8     libvcruntime:winapi_downlevel.obj
 0002:000011d8       ??_C@_0M@GDNOONDI@FlsGetValue@ 00000001800281d8     libvcruntime:winapi_downlevel.obj
 0002:000011f0       ??_C@_0M@JCPCPOEF@FlsSetValue@ 00000001800281f0     libvcruntime:winapi_downlevel.obj
 0002:00001208       ??_C@_0BM@HCFOFFN@InitializeCriticalSectionEx@ 0000000180028208     libvcruntime:winapi_downlevel.obj
 0002:00001230       ??_C@_1FE@LHBLIKM@?$AAA?$AAs?$AAs?$AAe?$AAr?$AAt?$AAi?$AAo?$AAn?$AA?5?$AAf?$AAa?$AAi?$AAl?$AAe@ 0000000180028230     libucrt:assert.obj
 0002:00001290       ??_C@_1EK@MBDPDCGA@?$AAM?$AAi?$AAc?$AAr?$AAo?$AAs?$AAo?$AAf?$AAt?$AA?5?$AAV?$AAi?$AAs?$AAu?$AAa@ 0000000180028290     libucrt:assert.obj
 0002:000012e0       ??_C@_1CE@OJBNHDMO@?$AAA?$AAs?$AAs?$AAe?$AAr?$AAt?$AAi?$AAo?$AAn?$AA?5?$AAf?$AAa?$AAi?$AAl?$AAe@ 00000001800282e0     libucrt:assert.obj
 0002:00001308       ??_C@_1BE@PHKBBGE@?$AAP?$AAr?$AAo?$AAg?$AAr?$AAa?$AAm?$AA?3?$AA?5@ 0000000180028308     libucrt:assert.obj
 0002:00001320       ??_C@_1O@HEMHKNDC@?$AAF?$AAi?$AAl?$AAe?$AA?3?$AA?5@ 0000000180028320     libucrt:assert.obj
 0002:00001330       ??_C@_1O@KCAFKHJE@?$AAL?$AAi?$AAn?$AAe?$AA?3?$AA?5@ 0000000180028330     libucrt:assert.obj
 0002:00001340       ??_C@_1BK@PEDCIPMA@?$AAE?$AAx?$AAp?$AAr?$AAe?$AAs?$AAs?$AAi?$AAo?$AAn?$AA?3?$AA?5@ 0000000180028340     libucrt:assert.obj
 0002:00001360       ??_C@_1OA@EGMLFBHJ@?$AAF?$AAo?$AAr?$AA?5?$AAi?$AAn?$AAf?$AAo?$AAr?$AAm?$AAa?$AAt?$AAi?$AAo?$AAn@ 0000000180028360     libucrt:assert.obj
 0002:00001440       ??_C@_1HK@POCJMFGK@?$AA?$CI?$AAP?$AAr?$AAe?$AAs?$AAs?$AA?5?$AAR?$AAe?$AAt?$AAr?$AAy?$AA?5?$AAt?$AAo@ 0000000180028440     libucrt:assert.obj
 0002:000014c0       ??_C@_17LGKOMLJ@?$AA?4?$AA?4?$AA?4@ 00000001800284c0     libucrt:assert.obj
 0002:000014c8       ??_C@_13LBAGMAIH@?$AA?6@   00000001800284c8     libucrt:assert.obj
 0002:000014cc       ??_C@_15IABLJNFO@?$AA?6?$AA?6@ 00000001800284cc     libucrt:assert.obj
 0002:000014d8       ??_C@_1CO@EAEJAADC@?$AA?$DM?$AAp?$AAr?$AAo?$AAg?$AAr?$AAa?$AAm?$AA?5?$AAn?$AAa?$AAm?$AAe?$AA?5?$AAu@ 00000001800284d8     libucrt:assert.obj
 0002:00001510       standard_lookup_table      0000000180028510     libucrt:output.obj
 0002:00001570       ??_C@_1O@CEDCILHN@?$AA?$CI?$AAn?$AAu?$AAl?$AAl?$AA?$CJ@ 0000000180028570     libucrt:output.obj
 0002:00001580       ??_C@_06OJHGLDPL@?$CInull?$CJ@ 0000000180028580     libucrt:output.obj
 0002:00001590       __acrt_exception_action_table 0000000180028590     libucrt:exception_filter.obj
 0002:00001650       __acrt_signal_action_table_count 0000000180028650     libucrt:exception_filter.obj
 0002:00001658       __acrt_signal_action_first_fpe_index 0000000180028658     libucrt:exception_filter.obj
 0002:00001660       __acrt_signal_action_fpe_count 0000000180028660     libucrt:exception_filter.obj
 0002:00001668       ??_C@_1BI@BGOHAHKC@?$AAm?$AAs?$AAc?$AAo?$AAr?$AAe?$AAe?$AA?4?$AAd?$AAl?$AAl@ 0000000180028668     libucrt:exit.obj
 0002:00001680       ??_C@_0P@MIGLKIOC@CorExitProcess@ 0000000180028680     libucrt:exit.obj
 0002:000019a0       ??_C@_1EA@JGEFHKEI@?$AAa?$AAp?$AAi?$AA?9?$AAm?$AAs?$AA?9?$AAw?$AAi?$AAn?$AA?9?$AAc?$AAo?$AAr?$AAe@ 00000001800289a0     libucrt:winapi_thunks.obj
 0002:000019e0       ??_C@_1DI@IJCEHOCB@?$AAa?$AAp?$AAi?$AA?9?$AAm?$AAs?$AA?9?$AAw?$AAi?$AAn?$AA?9?$AAc?$AAo?$AAr?$AAe@ 00000001800289e0     libucrt:winapi_thunks.obj
 0002:00001a20       ??_C@_1EI@MPIAOHOC@?$AAa?$AAp?$AAi?$AA?9?$AAm?$AAs?$AA?9?$AAw?$AAi?$AAn?$AA?9?$AAc?$AAo?$AAr?$AAe@ 0000000180028a20     libucrt:winapi_thunks.obj
 0002:00001a70       ??_C@_1FK@FPHCKFIE@?$AAa?$AAp?$AAi?$AA?9?$AAm?$AAs?$AA?9?$AAw?$AAi?$AAn?$AA?9?$AAc?$AAo?$AAr?$AAe@ 0000000180028a70     libucrt:winapi_thunks.obj
 0002:00001ad0       ??_C@_1EM@DILCGIIO@?$AAa?$AAp?$AAi?$AA?9?$AAm?$AAs?$AA?9?$AAw?$AAi?$AAn?$AA?9?$AAc?$AAo?$AAr?$AAe@ 0000000180028ad0     libucrt:winapi_thunks.obj
 0002:00001b20       ??_C@_1DM@LNCGDDPN@?$AAa?$AAp?$AAi?$AA?9?$AAm?$AAs?$AA?9?$AAw?$AAi?$AAn?$AA?9?$AAc?$AAo?$AAr?$AAe@ 0000000180028b20     libucrt:winapi_thunks.obj
 0002:00001b60       ??_C@_1DO@FPAPJEMD@?$AAa?$AAp?$AAi?$AA?9?$AAm?$AAs?$AA?9?$AAw?$AAi?$AAn?$AA?9?$AAc?$AAo?$AAr?$AAe@ 0000000180028b60     libucrt:winapi_thunks.obj
 0002:00001ba0       ??_C@_1DK@NDHNAHIO@?$AAa?$AAp?$AAi?$AA?9?$AAm?$AAs?$AA?9?$AAw?$AAi?$AAn?$AA?9?$AAc?$AAo?$AAr?$AAe@ 0000000180028ba0     libucrt:winapi_thunks.obj
 0002:00001be0       ??_C@_1DM@KGHDGBCM@?$AAa?$AAp?$AAi?$AA?9?$AAm?$AAs?$AA?9?$AAw?$AAi?$AAn?$AA?9?$AAc?$AAo?$AAr?$AAe@ 0000000180028be0     libucrt:winapi_thunks.obj
 0002:00001c20       ??_C@_1EO@IJIOEFOH@?$AAa?$AAp?$AAi?$AA?9?$AAm?$AAs?$AA?9?$AAw?$AAi?$AAn?$AA?9?$AAr?$AAt?$AAc?$AAo@ 0000000180028c20     libucrt:winapi_thunks.obj
 0002:00001c70       ??_C@_1FG@HHGEKANL@?$AAa?$AAp?$AAi?$AA?9?$AAm?$AAs?$AA?9?$AAw?$AAi?$AAn?$AA?9?$AAs?$AAe?$AAc?$AAu@ 0000000180028c70     libucrt:winapi_thunks.obj
 0002:00001cd0       ??_C@_1EG@DBIOJECG@?$AAe?$AAx?$AAt?$AA?9?$AAm?$AAs?$AA?9?$AAw?$AAi?$AAn?$AA?9?$AAn?$AAt?$AAu?$AAs@ 0000000180028cd0     libucrt:winapi_thunks.obj
 0002:00001d20       ??_C@_1EO@FIHMJCLF@?$AAe?$AAx?$AAt?$AA?9?$AAm?$AAs?$AA?9?$AAw?$AAi?$AAn?$AA?9?$AAn?$AAt?$AAu?$AAs@ 0000000180028d20     libucrt:winapi_thunks.obj
 0002:00001d70       ??_C@_1BC@DNHGCMLG@?$AAa?$AAd?$AAv?$AAa?$AAp?$AAi?$AA3?$AA2@ 0000000180028d70     libucrt:winapi_thunks.obj
 0002:00001d88       ??_C@_1M@OAIMIKLP@?$AAn?$AAt?$AAd?$AAl?$AAl@ 0000000180028d88     libucrt:winapi_thunks.obj
 0002:00001da0       ??_C@_1EG@DPGNFKGC@?$AAa?$AAp?$AAi?$AA?9?$AAm?$AAs?$AA?9?$AAw?$AAi?$AAn?$AA?9?$AAa?$AAp?$AAp?$AAm@ 0000000180028da0     libucrt:winapi_thunks.obj
 0002:00001de8       ??_C@_1O@BCCLBEOE@?$AAu?$AAs?$AAe?$AAr?$AA3?$AA2@ 0000000180028de8     libucrt:winapi_thunks.obj
 0002:00001df8       ??_C@_1BA@IAIFMGEF@?$AAe?$AAx?$AAt?$AA?9?$AAm?$AAs?$AA?9@ 0000000180028df8     libucrt:winapi_thunks.obj
 0002:00001e10       ??_C@_0BA@FHFNEAED@AreFileApisANSI@ 0000000180028e10     libucrt:winapi_thunks.obj
 0002:00001e48       ??_C@_0BA@HNOPNCHB@GetActiveWindow@ 0000000180028e48     libucrt:winapi_thunks.obj
 0002:00001e60       ??_C@_0BD@HHGDFDBJ@GetLastActivePopup@ 0000000180028e60     libucrt:winapi_thunks.obj
 0002:00001e80       ??_C@_0BI@DFKBFLJE@GetProcessWindowStation@ 0000000180028e80     libucrt:winapi_thunks.obj
 0002:00001ea0       ??_C@_0BK@DEKFELLI@GetUserObjectInformationW@ 0000000180028ea0     libucrt:winapi_thunks.obj
 0002:00001ed0       ??_C@_0O@KKBNKAPF@LCMapStringEx@ 0000000180028ed0     libucrt:winapi_thunks.obj
 0002:00001ee8       ??_C@_0BB@HBDEELFH@LocaleNameToLCID@ 0000000180028ee8     libucrt:winapi_thunks.obj
 0002:00001f08       ??_C@_0M@CHKKJDAI@MessageBoxA@ 0000000180028f08     libucrt:winapi_thunks.obj
 0002:00001f20       ??_C@_0M@DLDCCGNP@MessageBoxW@ 0000000180028f20     libucrt:winapi_thunks.obj
 0002:00001f30       ??_C@_0CF@OJOFEIGO@AppPolicyGetProcessTerminationM@ 0000000180028f30     libucrt:winapi_thunks.obj
 0002:00001f60       ??_C@_0CE@OICFMIKE@AppPolicyGetShowDeveloperDiagno@ 0000000180028f60     libucrt:winapi_thunks.obj
 0002:00001f88       ??_C@_0BL@ODDJNEDA@AppPolicyGetWindowingModel@ 0000000180028f88     libucrt:winapi_thunks.obj
 0002:00002030       ??_C@_03OEIAHPBN@INF@      0000000180029030     libucrt:cvt.obj
 0002:00002034       ??_C@_03OJHLLCGB@inf@      0000000180029034     libucrt:cvt.obj
 0002:00002038       ??_C@_03LKNCIKJB@NAN@      0000000180029038     libucrt:cvt.obj
 0002:0000203c       ??_C@_03LHCJEHON@nan@      000000018002903c     libucrt:cvt.obj
 0002:00002040       ??_C@_09OFJJIMPC@NAN?$CISNAN?$CJ@ 0000000180029040     libucrt:cvt.obj
 0002:00002050       ??_C@_09IPFBKMDL@nan?$CIsnan?$CJ@ 0000000180029050     libucrt:cvt.obj
 0002:00002060       ??_C@_08IKHNHAJ@NAN?$CIIND?$CJ@ 0000000180029060     libucrt:cvt.obj
 0002:00002070       ??_C@_08OFCDMILK@nan?$CIind?$CJ@ 0000000180029070     libucrt:cvt.obj
 0002:0000207c       ??_C@_05KLBDPFGC@e?$CL000@ 000000018002907c     libucrt:cvt.obj
 0002:00002090       __lc_time_c                0000000180029090     libucrt:nlsdata.obj
 0002:00002350       ??_C@_03KOEHGMDN@Sun@      0000000180029350     libucrt:nlsdata.obj
 0002:00002354       ??_C@_03PDAGKDH@Mon@       0000000180029354     libucrt:nlsdata.obj
 0002:00002358       ??_C@_03NAGEINEP@Tue@      0000000180029358     libucrt:nlsdata.obj
 0002:0000235c       ??_C@_03MHOMLAJA@Wed@      000000018002935c     libucrt:nlsdata.obj
 0002:00002360       ??_C@_03IOFIKPDN@Thu@      0000000180029360     libucrt:nlsdata.obj
 0002:00002364       ??_C@_03IDIOELNC@Fri@      0000000180029364     libucrt:nlsdata.obj
 0002:00002368       ??_C@_03FEFJNEK@Sat@       0000000180029368     libucrt:nlsdata.obj
 0002:0000236c       ??_C@_06OOPIFAJ@Sunday@    000000018002936c     libucrt:nlsdata.obj
 0002:00002374       ??_C@_06JLEDEDGH@Monday@   0000000180029374     libucrt:nlsdata.obj
 0002:00002380       ??_C@_07BAAGCFCM@Tuesday@  0000000180029380     libucrt:nlsdata.obj
 0002:00002388       ??_C@_09DLIGFAKA@Wednesday@ 0000000180029388     libucrt:nlsdata.obj
 0002:00002398       ??_C@_08HACCIKIA@Thursday@ 0000000180029398     libucrt:nlsdata.obj
 0002:000023a4       ??_C@_06JECMNKMI@Friday@   00000001800293a4     libucrt:nlsdata.obj
 0002:000023b0       ??_C@_08INBOOONO@Saturday@ 00000001800293b0     libucrt:nlsdata.obj
 0002:000023bc       ??_C@_03JIHJHPIE@Jan@      00000001800293bc     libucrt:nlsdata.obj
 0002:000023c0       ??_C@_03HJBDCHOM@Feb@      00000001800293c0     libucrt:nlsdata.obj
 0002:000023c4       ??_C@_03ODNJBKGA@Mar@      00000001800293c4     libucrt:nlsdata.obj
 0002:000023c8       ??_C@_03LEOLGMJP@Apr@      00000001800293c8     libucrt:nlsdata.obj
 0002:000023cc       ??_C@_03CNMDKL@May@        00000001800293cc     libucrt:nlsdata.obj
 0002:000023d0       ??_C@_03IDFGHECI@Jun@      00000001800293d0     libucrt:nlsdata.obj
 0002:000023d4       ??_C@_03LBGABGKK@Jul@      00000001800293d4     libucrt:nlsdata.obj
 0002:000023d8       ??_C@_03IFJFEIGA@Aug@      00000001800293d8     libucrt:nlsdata.obj
 0002:000023dc       ??_C@_03GGCAPAJC@Sep@      00000001800293dc     libucrt:nlsdata.obj
 0002:000023e0       ??_C@_03BMAOKBAD@Oct@      00000001800293e0     libucrt:nlsdata.obj
 0002:000023e4       ??_C@_03JPJOFNIA@Nov@      00000001800293e4     libucrt:nlsdata.obj
 0002:000023e8       ??_C@_03MKABNOCG@Dec@      00000001800293e8     libucrt:nlsdata.obj
 0002:000023f0       ??_C@_07CGJPFGJA@January@  00000001800293f0     libucrt:nlsdata.obj
 0002:000023f8       ??_C@_08GNJGEPFN@February@ 00000001800293f8     libucrt:nlsdata.obj
 0002:00002404       ??_C@_05HPCKOFNC@March@    0000000180029404     libucrt:nlsdata.obj
 0002:0000240c       ??_C@_05DMJDNLEJ@April@    000000018002940c     libucrt:nlsdata.obj
 0002:00002414       ??_C@_04CNLMGBGM@June@     0000000180029414     libucrt:nlsdata.obj
 0002:0000241c       ??_C@_04MIEPOIFP@July@     000000018002941c     libucrt:nlsdata.obj
 0002:00002424       ??_C@_06LBBHFDDG@August@   0000000180029424     libucrt:nlsdata.obj
 0002:00002430       ??_C@_09BHHEALKD@September@ 0000000180029430     libucrt:nlsdata.obj
 0002:00002440       ??_C@_07JJNFCEND@October@  0000000180029440     libucrt:nlsdata.obj
 0002:00002448       ??_C@_08HCHEGEOA@November@ 0000000180029448     libucrt:nlsdata.obj
 0002:00002458       ??_C@_08EDHMEBNP@December@ 0000000180029458     libucrt:nlsdata.obj
 0002:00002464       ??_C@_02DEDBPAFC@AM@       0000000180029464     libucrt:nlsdata.obj
 0002:00002468       ??_C@_02CJNFDJBF@PM@       0000000180029468     libucrt:nlsdata.obj
 0002:00002470       ??_C@_08BPBNCDIB@MM?1dd?1yy@ 0000000180029470     libucrt:nlsdata.obj
 0002:00002480       ??_C@_0BE@CKGJFCPC@dddd?0?5MMMM?5dd?0?5yyyy@ 0000000180029480     libucrt:nlsdata.obj
 0002:00002498       ??_C@_08JCCMCCIL@HH?3mm?3ss@ 0000000180029498     libucrt:nlsdata.obj
 0002:000024a8       ??_C@_17MBGCMIPB@?$AAS?$AAu?$AAn@ 00000001800294a8     libucrt:nlsdata.obj
 0002:000024b0       ??_C@_17KBOMKBF@?$AAM?$AAo?$AAn@ 00000001800294b0     libucrt:nlsdata.obj
 0002:000024b8       ??_C@_17BMKGEGOJ@?$AAT?$AAu?$AAe@ 00000001800294b8     libucrt:nlsdata.obj
 0002:000024c0       ??_C@_17CJEDCEPE@?$AAW?$AAe?$AAd@ 00000001800294c0     libucrt:nlsdata.obj
 0002:000024c8       ??_C@_17PDPHAADD@?$AAT?$AAh?$AAu@ 00000001800294c8     libucrt:nlsdata.obj
 0002:000024d0       ??_C@_17HFOLPPLP@?$AAF?$AAr?$AAi@ 00000001800294d0     libucrt:nlsdata.obj
 0002:000024d8       ??_C@_17GGIBDPIH@?$AAS?$AAa?$AAt@ 00000001800294d8     libucrt:nlsdata.obj
 0002:000024e0       ??_C@_1O@IHNHDHPB@?$AAS?$AAu?$AAn?$AAd?$AAa?$AAy@ 00000001800294e0     libucrt:nlsdata.obj
 0002:000024f0       ??_C@_1O@MMNBFLIA@?$AAM?$AAo?$AAn?$AAd?$AAa?$AAy@ 00000001800294f0     libucrt:nlsdata.obj
 0002:00002500       ??_C@_1BA@ENFBFFEK@?$AAT?$AAu?$AAe?$AAs?$AAd?$AAa?$AAy@ 0000000180029500     libucrt:nlsdata.obj
 0002:00002510       ??_C@_1BE@EBOGMDOH@?$AAW?$AAe?$AAd?$AAn?$AAe?$AAs?$AAd?$AAa?$AAy@ 0000000180029510     libucrt:nlsdata.obj
 0002:00002528       ??_C@_1BC@HHMNLIHE@?$AAT?$AAh?$AAu?$AAr?$AAs?$AAd?$AAa?$AAy@ 0000000180029528     libucrt:nlsdata.obj
 0002:00002540       ??_C@_1O@PDICJHAG@?$AAF?$AAr?$AAi?$AAd?$AAa?$AAy@ 0000000180029540     libucrt:nlsdata.obj
 0002:00002550       ??_C@_1BC@ENMNNPAJ@?$AAS?$AAa?$AAt?$AAu?$AAr?$AAd?$AAa?$AAy@ 0000000180029550     libucrt:nlsdata.obj
 0002:00002568       ??_C@_17DKNBKCHM@?$AAJ?$AAa?$AAn@ 0000000180029568     libucrt:nlsdata.obj
 0002:00002570       ??_C@_17LMDJEKJN@?$AAF?$AAe?$AAb@ 0000000180029570     libucrt:nlsdata.obj
 0002:00002578       ??_C@_17CKNLEDEC@?$AAM?$AAa?$AAr@ 0000000180029578     libucrt:nlsdata.obj
 0002:00002580       ??_C@_17LFPOIHDD@?$AAA?$AAp?$AAr@ 0000000180029580     libucrt:nlsdata.obj
 0002:00002588       ??_C@_17PNNKMEED@?$AAM?$AAa?$AAy@ 0000000180029588     libucrt:nlsdata.obj
 0002:00002590       ??_C@_17KCJGOCPB@?$AAJ?$AAu?$AAn@ 0000000180029590     libucrt:nlsdata.obj
 0002:00002598       ??_C@_17IJPCKHK@?$AAJ?$AAu?$AAl@ 0000000180029598     libucrt:nlsdata.obj
 0002:000025a0       ??_C@_17ICPELBCN@?$AAA?$AAu?$AAg@ 00000001800295a0     libucrt:nlsdata.obj
 0002:000025a8       ??_C@_17HCHCOKMG@?$AAS?$AAe?$AAp@ 00000001800295a8     libucrt:nlsdata.obj
 0002:000025b0       ??_C@_17FNLKOI@?$AAO?$AAc?$AAt@ 00000001800295b0     libucrt:nlsdata.obj
 0002:000025b8       ??_C@_17BBDMLCIG@?$AAN?$AAo?$AAv@ 00000001800295b8     libucrt:nlsdata.obj
 0002:000025c0       ??_C@_17EGKACKIF@?$AAD?$AAe?$AAc@ 00000001800295c0     libucrt:nlsdata.obj
 0002:000025c8       ??_C@_1BA@EFMEIEBA@?$AAJ?$AAa?$AAn?$AAu?$AAa?$AAr?$AAy@ 00000001800295c8     libucrt:nlsdata.obj
 0002:000025d8       ??_C@_1BC@JGDDFFAM@?$AAF?$AAe?$AAb?$AAr?$AAu?$AAa?$AAr?$AAy@ 00000001800295d8     libucrt:nlsdata.obj
 0002:000025f0       ??_C@_1M@IKEENEDF@?$AAM?$AAa?$AAr?$AAc?$AAh@ 00000001800295f0     libucrt:nlsdata.obj
 0002:00002600       ??_C@_1M@GJNLMHFD@?$AAA?$AAp?$AAr?$AAi?$AAl@ 0000000180029600     libucrt:nlsdata.obj
 0002:00002610       ??_C@_19EPFLPGAP@?$AAJ?$AAu?$AAn?$AAe@ 0000000180029610     libucrt:nlsdata.obj
 0002:00002620       ??_C@_19BIFMLPCD@?$AAJ?$AAu?$AAl?$AAy@ 0000000180029620     libucrt:nlsdata.obj
 0002:00002630       ??_C@_1O@PAHLKOAC@?$AAA?$AAu?$AAg?$AAu?$AAs?$AAt@ 0000000180029630     libucrt:nlsdata.obj
 0002:00002640       ??_C@_1BE@DKAAMBJL@?$AAS?$AAe?$AAp?$AAt?$AAe?$AAm?$AAb?$AAe?$AAr@ 0000000180029640     libucrt:nlsdata.obj
 0002:00002658       ??_C@_1BA@EPANDLNG@?$AAO?$AAc?$AAt?$AAo?$AAb?$AAe?$AAr@ 0000000180029658     libucrt:nlsdata.obj
 0002:00002668       ??_C@_1BC@BGLIFPF@?$AAN?$AAo?$AAv?$AAe?$AAm?$AAb?$AAe?$AAr@ 0000000180029668     libucrt:nlsdata.obj
 0002:00002680       ??_C@_1BC@FEMKIFH@?$AAD?$AAe?$AAc?$AAe?$AAm?$AAb?$AAe?$AAr@ 0000000180029680     libucrt:nlsdata.obj
 0002:00002694       ??_C@_15ODEHAHHF@?$AAA?$AAM@ 0000000180029694     libucrt:nlsdata.obj
 0002:0000269c       ??_C@_15CLMNNGEL@?$AAP?$AAM@ 000000018002969c     libucrt:nlsdata.obj
 0002:000026a8       ??_C@_1BC@IEBCMHCM@?$AAM?$AAM?$AA?1?$AAd?$AAd?$AA?1?$AAy?$AAy@ 00000001800296a8     libucrt:nlsdata.obj
 0002:000026c0       ??_C@_1CI@KNAKOEBC@?$AAd?$AAd?$AAd?$AAd?$AA?0?$AA?5?$AAM?$AAM?$AAM?$AAM?$AA?5?$AAd?$AAd?$AA?0?$AA?5@ 00000001800296c0     libucrt:nlsdata.obj
 0002:000026e8       ??_C@_1BC@GDGBMEMK@?$AAH?$AAH?$AA?3?$AAm?$AAm?$AA?3?$AAs?$AAs@ 00000001800296e8     libucrt:nlsdata.obj
 0002:00002700       ??_C@_1M@BMHNFIME@?$AAe?$AAn?$AA?9?$AAU?$AAS@ 0000000180029700     libucrt:nlsdata.obj
 0002:00002730       ??_C@_1M@HPNHIDJI@?$AAj?$AAa?$AA?9?$AAJ?$AAP@ 0000000180029730     libucrt:mbctype.obj
 0002:00002740       ??_C@_1M@BIBDDEMK@?$AAz?$AAh?$AA?9?$AAC?$AAN@ 0000000180029740     libucrt:mbctype.obj
 0002:00002750       ??_C@_1M@JLOOOEGK@?$AAk?$AAo?$AA?9?$AAK?$AAR@ 0000000180029750     libucrt:mbctype.obj
 0002:00002760       ??_C@_1M@CLNBBOPM@?$AAz?$AAh?$AA?9?$AAT?$AAW@ 0000000180029760     libucrt:mbctype.obj
 0002:00002770       __newctype                 0000000180029770     libucrt:ctype.obj
 0002:00002a70       __newclmap                 0000000180029a70     libucrt:ctype.obj
 0002:00002bf0       __newcumap                 0000000180029bf0     libucrt:ctype.obj
 0002:00002d70       _wctype                    0000000180029d70     libucrt:ctype.obj
 0002:00003dc0       ??_C@_15EMKDOKLE@?$AAa?$AAr@ 000000018002adc0     libucrt:lcidtoname_downlevel.obj
 0002:00003dc8       ??_C@_15KNPADPLH@?$AAb?$AAg@ 000000018002adc8     libucrt:lcidtoname_downlevel.obj
 0002:00003dd0       ??_C@_15EDMHLDMO@?$AAc?$AAa@ 000000018002add0     libucrt:lcidtoname_downlevel.obj
 0002:00003dd8       ??_C@_1O@BPEAJADD@?$AAz?$AAh?$AA?9?$AAC?$AAH?$AAS@ 000000018002add8     libucrt:lcidtoname_downlevel.obj
 0002:00003de8       ??_C@_15LJNHCMNK@?$AAc?$AAs@ 000000018002ade8     libucrt:lcidtoname_downlevel.obj
 0002:00003df0       ??_C@_15FOMCIDHG@?$AAd?$AAa@ 000000018002adf0     libucrt:lcidtoname_downlevel.obj
 0002:00003df8       ??_C@_15NBKABECB@?$AAd?$AAe@ 000000018002adf8     libucrt:lcidtoname_downlevel.obj
 0002:00003e00       ??_C@_15GHPEIIAO@?$AAe?$AAl@ 000000018002ae00     libucrt:lcidtoname_downlevel.obj
 0002:00003e08       ??_C@_15MNPNEAIF@?$AAe?$AAn@ 000000018002ae08     libucrt:lcidtoname_downlevel.obj
 0002:00003e10       ??_C@_15GPIOMPMH@?$AAe?$AAs@ 000000018002ae10     libucrt:lcidtoname_downlevel.obj
 0002:00003e18       ??_C@_15NGLOAKJC@?$AAf?$AAi@ 000000018002ae18     libucrt:lcidtoname_downlevel.obj
 0002:00003e20       ??_C@_15FBKGNKAM@?$AAf?$AAr@ 000000018002ae20     libucrt:lcidtoname_downlevel.obj
 0002:00003e28       ??_C@_15KGGCNEFK@?$AAh?$AAe@ 000000018002ae28     libucrt:lcidtoname_downlevel.obj
 0002:00003e30       ??_C@_15PGHLIDMF@?$AAh?$AAu@ 000000018002ae30     libucrt:lcidtoname_downlevel.obj
 0002:00003e38       ??_C@_15BIEMAPLM@?$AAi?$AAs@ 000000018002ae38     libucrt:lcidtoname_downlevel.obj
 0002:00003e40       ??_C@_15IFJLDHAF@?$AAi?$AAt@ 000000018002ae40     libucrt:lcidtoname_downlevel.obj
 0002:00003e48       ??_C@_15GEMIOCAG@?$AAj?$AAa@ 000000018002ae48     libucrt:lcidtoname_downlevel.obj
 0002:00003e50       ??_C@_15EPELEGJA@?$AAk?$AAo@ 000000018002ae50     libucrt:lcidtoname_downlevel.obj
 0002:00003e58       ??_C@_15NDDHIMN@?$AAn?$AAl@ 000000018002ae58     libucrt:lcidtoname_downlevel.obj
 0002:00003e60       ??_C@_15BPIGNHCD@?$AAn?$AAo@ 000000018002ae60     libucrt:lcidtoname_downlevel.obj
 0002:00003e68       ??_C@_15DEOPBLCG@?$AAp?$AAl@ 000000018002ae68     libucrt:lcidtoname_downlevel.obj
 0002:00003e70       ??_C@_15KBECGEFG@?$AAp?$AAt@ 000000018002ae70     libucrt:lcidtoname_downlevel.obj
 0002:00003e78       ??_C@_15GLJCBFMD@?$AAr?$AAo@ 000000018002ae78     libucrt:lcidtoname_downlevel.obj
 0002:00003e80       ??_C@_15FEDGKCDI@?$AAr?$AAu@ 000000018002ae80     libucrt:lcidtoname_downlevel.obj
 0002:00003e88       ??_C@_15GLKMLLHM@?$AAh?$AAr@ 000000018002ae88     libucrt:lcidtoname_downlevel.obj
 0002:00003e90       ??_C@_15CPKMFBDB@?$AAs?$AAk@ 000000018002ae90     libucrt:lcidtoname_downlevel.obj
 0002:00003e98       ??_C@_15BAAIOGMK@?$AAs?$AAq@ 000000018002ae98     libucrt:lcidtoname_downlevel.obj
 0002:00003ea0       ??_C@_15INNPNOHD@?$AAs?$AAv@ 000000018002aea0     libucrt:lcidtoname_downlevel.obj
 0002:00003ea8       ??_C@_15CABMMOGH@?$AAt?$AAh@ 000000018002aea8     libucrt:lcidtoname_downlevel.obj
 0002:00003eb0       ??_C@_15BPLIHJJM@?$AAt?$AAr@ 000000018002aeb0     libucrt:lcidtoname_downlevel.obj
 0002:00003eb8       ??_C@_15NEOEKKDJ@?$AAu?$AAr@ 000000018002aeb8     libucrt:lcidtoname_downlevel.obj
 0002:00003ec0       ??_C@_15NFICGAJK@?$AAi?$AAd@ 000000018002aec0     libucrt:lcidtoname_downlevel.obj
 0002:00003ec8       ??_C@_15PJPFLCCM@?$AAu?$AAk@ 000000018002aec8     libucrt:lcidtoname_downlevel.obj
 0002:00003ed0       ??_C@_15HPJPHDM@?$AAb?$AAe@ 000000018002aed0     libucrt:lcidtoname_downlevel.obj
 0002:00003ed8       ??_C@_15LCHLGJII@?$AAs?$AAl@ 000000018002aed8     libucrt:lcidtoname_downlevel.obj
 0002:00003ee0       ??_C@_15PCFJPHHO@?$AAe?$AAt@ 000000018002aee0     libucrt:lcidtoname_downlevel.obj
 0002:00003ee8       ??_C@_15HPFPGODN@?$AAl?$AAv@ 000000018002aee8     libucrt:lcidtoname_downlevel.obj
 0002:00003ef0       ??_C@_15NFFGKGLG@?$AAl?$AAt@ 000000018002aef0     libucrt:lcidtoname_downlevel.obj
 0002:00003ef8       ??_C@_15BDAKCCHN@?$AAf?$AAa@ 000000018002aef8     libucrt:lcidtoname_downlevel.obj
 0002:00003f00       ??_C@_15NFGIAIAJ@?$AAv?$AAi@ 000000018002af00     libucrt:lcidtoname_downlevel.obj
 0002:00003f08       ??_C@_15LMKNDMHN@?$AAh?$AAy@ 000000018002af08     libucrt:lcidtoname_downlevel.obj
 0002:00003f10       ??_C@_15IJBHMCFL@?$AAa?$AAz@ 000000018002af10     libucrt:lcidtoname_downlevel.obj
 0002:00003f18       ??_C@_15EKOFJABL@?$AAe?$AAu@ 000000018002af18     libucrt:lcidtoname_downlevel.obj
 0002:00003f20       ??_C@_15BGHADCNK@?$AAm?$AAk@ 000000018002af20     libucrt:lcidtoname_downlevel.obj
 0002:00003f28       ??_C@_15JDNICKHM@?$AAa?$AAf@ 000000018002af28     libucrt:lcidtoname_downlevel.obj
 0002:00003f30       ??_C@_15KPJEDBKD@?$AAk?$AAa@ 000000018002af30     libucrt:lcidtoname_downlevel.obj
 0002:00003f38       ??_C@_15PDNFFFEO@?$AAf?$AAo@ 000000018002af38     libucrt:lcidtoname_downlevel.obj
 0002:00003f40       ??_C@_15OMLEGLOC@?$AAh?$AAi@ 000000018002af40     libucrt:lcidtoname_downlevel.obj
 0002:00003f48       ??_C@_15IDNNENKK@?$AAm?$AAs@ 000000018002af48     libucrt:lcidtoname_downlevel.obj
 0002:00003f50       ??_C@_15MACJNBMH@?$AAk?$AAk@ 000000018002af50     libucrt:lcidtoname_downlevel.obj
 0002:00003f58       ??_C@_15DKDJEOND@?$AAk?$AAy@ 000000018002af58     libucrt:lcidtoname_downlevel.obj
 0002:00003f60       ??_C@_15DFGDLJBG@?$AAs?$AAw@ 000000018002af60     libucrt:lcidtoname_downlevel.obj
 0002:00003f68       ??_C@_15BBFAICNG@?$AAu?$AAz@ 000000018002af68     libucrt:lcidtoname_downlevel.obj
 0002:00003f70       ??_C@_15DKNDCGEA@?$AAt?$AAt@ 000000018002af70     libucrt:lcidtoname_downlevel.obj
 0002:00003f78       ??_C@_15MGIFMDPL@?$AAp?$AAa@ 000000018002af78     libucrt:lcidtoname_downlevel.obj
 0002:00003f80       ??_C@_15HCNDBBA@?$AAg?$AAu@ 000000018002af80     libucrt:lcidtoname_downlevel.obj
 0002:00003f88       ??_C@_15FNBEIBON@?$AAt?$AAa@ 000000018002af88     libucrt:lcidtoname_downlevel.obj
 0002:00003f90       ??_C@_15NCHGBGLK@?$AAt?$AAe@ 000000018002af90     libucrt:lcidtoname_downlevel.obj
 0002:00003f98       ??_C@_15PHPHCBPF@?$AAk?$AAn@ 000000018002af98     libucrt:lcidtoname_downlevel.obj
 0002:00003fa0       ??_C@_15DLGBCKMP@?$AAm?$AAr@ 000000018002afa0     libucrt:lcidtoname_downlevel.obj
 0002:00003fa8       ??_C@_15EABBLBFF@?$AAs?$AAa@ 000000018002afa8     libucrt:lcidtoname_downlevel.obj
 0002:00003fb0       ??_C@_15CBKOMCOI@?$AAm?$AAn@ 000000018002afb0     libucrt:lcidtoname_downlevel.obj
 0002:00003fb8       ??_C@_15CKDMCJAF@?$AAg?$AAl@ 000000018002afb8     libucrt:lcidtoname_downlevel.obj
 0002:00003fc0       ??_C@_17CNJFBPG@?$AAk?$AAo?$AAk@ 000000018002afc0     libucrt:lcidtoname_downlevel.obj
 0002:00003fc8       ??_C@_17FFBJICPL@?$AAs?$AAy?$AAr@ 000000018002afc8     libucrt:lcidtoname_downlevel.obj
 0002:00003fd0       ??_C@_17KPNDCPAF@?$AAd?$AAi?$AAv@ 000000018002afd0     libucrt:lcidtoname_downlevel.obj
 0002:00003fd8       ??_C@_11LOCGONAA@@         000000018002afd8     libucrt:lcidtoname_downlevel.obj
 0002:00003fe0       ??_C@_1M@OKAHONE@?$AAa?$AAr?$AA?9?$AAS?$AAA@ 000000018002afe0     libucrt:lcidtoname_downlevel.obj
 0002:00003ff0       ??_C@_1M@FFFIGIGK@?$AAb?$AAg?$AA?9?$AAB?$AAG@ 000000018002aff0     libucrt:lcidtoname_downlevel.obj
 0002:00004000       ??_C@_1M@BJNKEDC@?$AAc?$AAa?$AA?9?$AAE?$AAS@ 000000018002b000     libucrt:lcidtoname_downlevel.obj
 0002:00004010       ??_C@_1M@IJJHFJHA@?$AAc?$AAs?$AA?9?$AAC?$AAZ@ 000000018002b010     libucrt:lcidtoname_downlevel.obj
 0002:00004020       ??_C@_1M@CLPEOBGI@?$AAd?$AAa?$AA?9?$AAD?$AAK@ 000000018002b020     libucrt:lcidtoname_downlevel.obj
 0002:00004030       ??_C@_1M@MCMADGCB@?$AAd?$AAe?$AA?9?$AAD?$AAE@ 000000018002b030     libucrt:lcidtoname_downlevel.obj
 0002:00004040       ??_C@_1M@OOCKEMAM@?$AAe?$AAl?$AA?9?$AAG?$AAR@ 000000018002b040     libucrt:lcidtoname_downlevel.obj
 0002:00004050       ??_C@_1M@DDNJFGID@?$AAf?$AAi?$AA?9?$AAF?$AAI@ 000000018002b050     libucrt:lcidtoname_downlevel.obj
 0002:00004060       ??_C@_1M@GLIPPMAC@?$AAf?$AAr?$AA?9?$AAF?$AAR@ 000000018002b060     libucrt:lcidtoname_downlevel.obj
 0002:00004070       ??_C@_1M@GFMCHPE@?$AAh?$AAe?$AA?9?$AAI?$AAL@ 000000018002b070     libucrt:lcidtoname_downlevel.obj
 0002:00004080       ??_C@_1M@MHLPGNKM@?$AAh?$AAu?$AA?9?$AAH?$AAU@ 000000018002b080     libucrt:lcidtoname_downlevel.obj
 0002:00004090       ??_C@_1M@LPDDNNPN@?$AAi?$AAs?$AA?9?$AAI?$AAS@ 000000018002b090     libucrt:lcidtoname_downlevel.obj
 0002:000040a0       ??_C@_1M@MADIPODN@?$AAi?$AAt?$AA?9?$AAI?$AAT@ 000000018002b0a0     libucrt:lcidtoname_downlevel.obj
 0002:000040b0       ??_C@_1M@IHBJJGG@?$AAn?$AAl?$AA?9?$AAN?$AAL@ 000000018002b0b0     libucrt:lcidtoname_downlevel.obj
 0002:000040c0       ??_C@_1M@EANAGDL@?$AAn?$AAb?$AA?9?$AAN?$AAO@ 000000018002b0c0     libucrt:lcidtoname_downlevel.obj
 0002:000040d0       ??_C@_1M@NEIEMEGP@?$AAp?$AAl?$AA?9?$AAP?$AAL@ 000000018002b0d0     libucrt:lcidtoname_downlevel.obj
 0002:000040e0       ??_C@_1M@BOCFIGEP@?$AAp?$AAt?$AA?9?$AAB?$AAR@ 000000018002b0e0     libucrt:lcidtoname_downlevel.obj
 0002:000040f0       ??_C@_1M@IMPFOPBG@?$AAr?$AAo?$AA?9?$AAR?$AAO@ 000000018002b0f0     libucrt:lcidtoname_downlevel.obj
 0002:00004100       ??_C@_1M@IDNNEJMM@?$AAr?$AAu?$AA?9?$AAR?$AAU@ 000000018002b100     libucrt:lcidtoname_downlevel.obj
 0002:00004110       ??_C@_1M@LILEEOGM@?$AAh?$AAr?$AA?9?$AAH?$AAR@ 000000018002b110     libucrt:lcidtoname_downlevel.obj
 0002:00004120       ??_C@_1M@FKIFEHPB@?$AAs?$AAk?$AA?9?$AAS?$AAK@ 000000018002b120     libucrt:lcidtoname_downlevel.obj
 0002:00004130       ??_C@_1M@LJMAMNPJ@?$AAs?$AAq?$AA?9?$AAA?$AAL@ 000000018002b130     libucrt:lcidtoname_downlevel.obj
 0002:00004140       ??_C@_1M@GIAKDKJK@?$AAs?$AAv?$AA?9?$AAS?$AAE@ 000000018002b140     libucrt:lcidtoname_downlevel.obj
 0002:00004150       ??_C@_1M@MKJKIKCL@?$AAt?$AAh?$AA?9?$AAT?$AAH@ 000000018002b150     libucrt:lcidtoname_downlevel.obj
 0002:00004160       ??_C@_1M@MFLCCMPB@?$AAt?$AAr?$AA?9?$AAT?$AAR@ 000000018002b160     libucrt:lcidtoname_downlevel.obj
 0002:00004170       ??_C@_1M@OIJHDKJN@?$AAu?$AAr?$AA?9?$AAP?$AAK@ 000000018002b170     libucrt:lcidtoname_downlevel.obj
 0002:00004180       ??_C@_1M@LHIPCIEK@?$AAi?$AAd?$AA?9?$AAI?$AAD@ 000000018002b180     libucrt:lcidtoname_downlevel.obj
 0002:00004190       ??_C@_1M@MFMOBGI@?$AAu?$AAk?$AA?9?$AAU?$AAA@ 000000018002b190     libucrt:lcidtoname_downlevel.obj
 0002:000041a0       ??_C@_1M@OBGLJIPL@?$AAb?$AAe?$AA?9?$AAB?$AAY@ 000000018002b1a0     libucrt:lcidtoname_downlevel.obj
 0002:000041b0       ??_C@_1M@BCFAJEAD@?$AAs?$AAl?$AA?9?$AAS?$AAI@ 000000018002b1b0     libucrt:lcidtoname_downlevel.obj
 0002:000041c0       ??_C@_1M@FKFFEDDN@?$AAe?$AAt?$AA?9?$AAE?$AAE@ 000000018002b1c0     libucrt:lcidtoname_downlevel.obj
 0002:000041d0       ??_C@_1M@KGKKAACI@?$AAl?$AAv?$AA?9?$AAL?$AAV@ 000000018002b1d0     libucrt:lcidtoname_downlevel.obj
 0002:000041e0       ??_C@_1M@IFGBIJO@?$AAl?$AAt?$AA?9?$AAL?$AAT@ 000000018002b1e0     libucrt:lcidtoname_downlevel.obj
 0002:000041f0       ??_C@_1M@FGEAHEDM@?$AAf?$AAa?$AA?9?$AAI?$AAR@ 000000018002b1f0     libucrt:lcidtoname_downlevel.obj
 0002:00004200       ??_C@_1M@KBMAIBFN@?$AAv?$AAi?$AA?9?$AAV?$AAN@ 000000018002b200     libucrt:lcidtoname_downlevel.obj
 0002:00004210       ??_C@_1M@GPCBKDJK@?$AAh?$AAy?$AA?9?$AAA?$AAM@ 000000018002b210     libucrt:lcidtoname_downlevel.obj
 0002:00004220       ??_C@_1BG@BECMDDJB@?$AAa?$AAz?$AA?9?$AAA?$AAZ?$AA?9?$AAL?$AAa?$AAt?$AAn@ 000000018002b220     libucrt:lcidtoname_downlevel.obj
 0002:00004238       ??_C@_1M@MAOFCAEA@?$AAe?$AAu?$AA?9?$AAE?$AAS@ 000000018002b238     libucrt:lcidtoname_downlevel.obj
 0002:00004248       ??_C@_1M@IGHABKPI@?$AAm?$AAk?$AA?9?$AAM?$AAK@ 000000018002b248     libucrt:lcidtoname_downlevel.obj
 0002:00004258       ??_C@_1M@IAIGNEJG@?$AAt?$AAn?$AA?9?$AAZ?$AAA@ 000000018002b258     libucrt:lcidtoname_downlevel.obj
 0002:00004268       ??_C@_1M@IIJCOJFA@?$AAx?$AAh?$AA?9?$AAZ?$AAA@ 000000018002b268     libucrt:lcidtoname_downlevel.obj
 0002:00004278       ??_C@_1M@LGPJHNJH@?$AAz?$AAu?$AA?9?$AAZ?$AAA@ 000000018002b278     libucrt:lcidtoname_downlevel.obj
 0002:00004288       ??_C@_1M@HOKAOIO@?$AAa?$AAf?$AA?9?$AAZ?$AAA@ 000000018002b288     libucrt:lcidtoname_downlevel.obj
 0002:00004298       ??_C@_1M@DPCLHLIE@?$AAk?$AAa?$AA?9?$AAG?$AAE@ 000000018002b298     libucrt:lcidtoname_downlevel.obj
 0002:000042a8       ??_C@_1M@BLKMHJBI@?$AAf?$AAo?$AA?9?$AAF?$AAO@ 000000018002b2a8     libucrt:lcidtoname_downlevel.obj
 0002:000042b8       ??_C@_1M@LGGJAPPB@?$AAh?$AAi?$AA?9?$AAI?$AAN@ 000000018002b2b8     libucrt:lcidtoname_downlevel.obj
 0002:000042c8       ??_C@_1M@FIKPIHFE@?$AAm?$AAt?$AA?9?$AAM?$AAT@ 000000018002b2c8     libucrt:lcidtoname_downlevel.obj
 0002:000042d8       ??_C@_1M@HEGGPBFA@?$AAs?$AAe?$AA?9?$AAN?$AAO@ 000000018002b2d8     libucrt:lcidtoname_downlevel.obj
 0002:000042e8       ??_C@_1M@EIBJEEPA@?$AAm?$AAs?$AA?9?$AAM?$AAY@ 000000018002b2e8     libucrt:lcidtoname_downlevel.obj
 0002:000042f8       ??_C@_1M@FHLBGMPP@?$AAk?$AAk?$AA?9?$AAK?$AAZ@ 000000018002b2f8     libucrt:lcidtoname_downlevel.obj
 0002:00004308       ??_C@_1M@NGJJLCGI@?$AAk?$AAy?$AA?9?$AAK?$AAG@ 000000018002b308     libucrt:lcidtoname_downlevel.obj
 0002:00004318       ??_C@_1M@GIENNBFC@?$AAs?$AAw?$AA?9?$AAK?$AAE@ 000000018002b318     libucrt:lcidtoname_downlevel.obj
 0002:00004328       ??_C@_1BG@NDGMJIMJ@?$AAu?$AAz?$AA?9?$AAU?$AAZ?$AA?9?$AAL?$AAa?$AAt?$AAn@ 000000018002b328     libucrt:lcidtoname_downlevel.obj
 0002:00004340       ??_C@_1M@IDCCIHBC@?$AAt?$AAt?$AA?9?$AAR?$AAU@ 000000018002b340     libucrt:lcidtoname_downlevel.obj
 0002:00004350       ??_C@_1M@LOICPMOJ@?$AAb?$AAn?$AA?9?$AAI?$AAN@ 000000018002b350     libucrt:lcidtoname_downlevel.obj
 0002:00004360       ??_C@_1M@KPKKNEAH@?$AAp?$AAa?$AA?9?$AAI?$AAN@ 000000018002b360     libucrt:lcidtoname_downlevel.obj
 0002:00004370       ??_C@_1M@PJGPPBOG@?$AAg?$AAu?$AA?9?$AAI?$AAN@ 000000018002b370     libucrt:lcidtoname_downlevel.obj
 0002:00004380       ??_C@_1M@KMKMOPHI@?$AAt?$AAa?$AA?9?$AAI?$AAN@ 000000018002b380     libucrt:lcidtoname_downlevel.obj
 0002:00004390       ??_C@_1M@KFEHEPAC@?$AAt?$AAe?$AA?9?$AAI?$AAN@ 000000018002b390     libucrt:lcidtoname_downlevel.obj
 0002:000043a0       ??_C@_1M@CDCLMGHI@?$AAk?$AAn?$AA?9?$AAI?$AAN@ 000000018002b3a0     libucrt:lcidtoname_downlevel.obj
 0002:000043b0       ??_C@_1M@MIODLDKF@?$AAm?$AAl?$AA?9?$AAI?$AAN@ 000000018002b3b0     libucrt:lcidtoname_downlevel.obj
 0002:000043c0       ??_C@_1M@PBIEACPO@?$AAm?$AAr?$AA?9?$AAI?$AAN@ 000000018002b3c0     libucrt:lcidtoname_downlevel.obj
 0002:000043d0       ??_C@_1M@NIDEAGPH@?$AAs?$AAa?$AA?9?$AAI?$AAN@ 000000018002b3d0     libucrt:lcidtoname_downlevel.obj
 0002:000043e0       ??_C@_1M@FHIHCBIO@?$AAm?$AAn?$AA?9?$AAM?$AAN@ 000000018002b3e0     libucrt:lcidtoname_downlevel.obj
 0002:000043f0       ??_C@_1M@JAIJPENP@?$AAc?$AAy?$AA?9?$AAG?$AAB@ 000000018002b3f0     libucrt:lcidtoname_downlevel.obj
 0002:00004400       ??_C@_1M@PHGFBEPN@?$AAg?$AAl?$AA?9?$AAE?$AAS@ 000000018002b400     libucrt:lcidtoname_downlevel.obj
 0002:00004410       ??_C@_1O@KPIPDNCP@?$AAk?$AAo?$AAk?$AA?9?$AAI?$AAN@ 000000018002b410     libucrt:lcidtoname_downlevel.obj
 0002:00004420       ??_C@_1O@KNHJLDJA@?$AAs?$AAy?$AAr?$AA?9?$AAS?$AAY@ 000000018002b420     libucrt:lcidtoname_downlevel.obj
 0002:00004430       ??_C@_1O@MKEKBLAH@?$AAd?$AAi?$AAv?$AA?9?$AAM?$AAV@ 000000018002b430     libucrt:lcidtoname_downlevel.obj
 0002:00004440       ??_C@_1O@OHDCKDDF@?$AAq?$AAu?$AAz?$AA?9?$AAB?$AAO@ 000000018002b440     libucrt:lcidtoname_downlevel.obj
 0002:00004450       ??_C@_1M@LEPJNLFD@?$AAn?$AAs?$AA?9?$AAZ?$AAA@ 000000018002b450     libucrt:lcidtoname_downlevel.obj
 0002:00004460       ??_C@_1M@OMLEIIJB@?$AAm?$AAi?$AA?9?$AAN?$AAZ@ 000000018002b460     libucrt:lcidtoname_downlevel.obj
 0002:00004470       ??_C@_1M@PMPEAILG@?$AAa?$AAr?$AA?9?$AAI?$AAQ@ 000000018002b470     libucrt:lcidtoname_downlevel.obj
 0002:00004480       ??_C@_1M@CNKPNOEE@?$AAd?$AAe?$AA?9?$AAC?$AAH@ 000000018002b480     libucrt:lcidtoname_downlevel.obj
 0002:00004490       ??_C@_1M@LKMGMLKO@?$AAe?$AAn?$AA?9?$AAG?$AAB@ 000000018002b490     libucrt:lcidtoname_downlevel.obj
 0002:000044a0       ??_C@_1M@PGKJFFGL@?$AAe?$AAs?$AA?9?$AAM?$AAX@ 000000018002b4a0     libucrt:lcidtoname_downlevel.obj
 0002:000044b0       ??_C@_1M@DNNANBDC@?$AAf?$AAr?$AA?9?$AAB?$AAE@ 000000018002b4b0     libucrt:lcidtoname_downlevel.obj
 0002:000044c0       ??_C@_1M@HLGMDFHM@?$AAi?$AAt?$AA?9?$AAC?$AAH@ 000000018002b4c0     libucrt:lcidtoname_downlevel.obj
 0002:000044d0       ??_C@_1M@CLLBGJH@?$AAn?$AAl?$AA?9?$AAB?$AAE@ 000000018002b4d0     libucrt:lcidtoname_downlevel.obj
 0002:000044e0       ??_C@_1M@BODBOGLF@?$AAn?$AAn?$AA?9?$AAN?$AAO@ 000000018002b4e0     libucrt:lcidtoname_downlevel.obj
 0002:000044f0       ??_C@_1M@HFFAHKAD@?$AAp?$AAt?$AA?9?$AAP?$AAT@ 000000018002b4f0     libucrt:lcidtoname_downlevel.obj
 0002:00004500       ??_C@_1BG@LNOAKHIE@?$AAs?$AAr?$AA?9?$AAS?$AAP?$AA?9?$AAL?$AAa?$AAt?$AAn@ 000000018002b500     libucrt:lcidtoname_downlevel.obj
 0002:00004518       ??_C@_1M@HBMHBGAK@?$AAs?$AAv?$AA?9?$AAF?$AAI@ 000000018002b518     libucrt:lcidtoname_downlevel.obj
 0002:00004528       ??_C@_1BG@DGCJGJBE@?$AAa?$AAz?$AA?9?$AAA?$AAZ?$AA?9?$AAC?$AAy?$AAr?$AAl@ 000000018002b528     libucrt:lcidtoname_downlevel.obj
 0002:00004540       ??_C@_1M@KEJDAAHB@?$AAs?$AAe?$AA?9?$AAS?$AAE@ 000000018002b540     libucrt:lcidtoname_downlevel.obj
 0002:00004550       ??_C@_1M@HEIBJJAD@?$AAm?$AAs?$AA?9?$AAB?$AAN@ 000000018002b550     libucrt:lcidtoname_downlevel.obj
 0002:00004560       ??_C@_1BG@PBGJMCEM@?$AAu?$AAz?$AA?9?$AAU?$AAZ?$AA?9?$AAC?$AAy?$AAr?$AAl@ 000000018002b560     libucrt:lcidtoname_downlevel.obj
 0002:00004578       ??_C@_1O@LAOBCMDF@?$AAq?$AAu?$AAz?$AA?9?$AAE?$AAC@ 000000018002b578     libucrt:lcidtoname_downlevel.obj
 0002:00004588       ??_C@_1M@POEEMAIO@?$AAa?$AAr?$AA?9?$AAE?$AAG@ 000000018002b588     libucrt:lcidtoname_downlevel.obj
 0002:00004598       ??_C@_1M@EFAKDEDL@?$AAz?$AAh?$AA?9?$AAH?$AAK@ 000000018002b598     libucrt:lcidtoname_downlevel.obj
 0002:000045a8       ??_C@_1M@HKKIJHGI@?$AAd?$AAe?$AA?9?$AAA?$AAT@ 000000018002b5a8     libucrt:lcidtoname_downlevel.obj
 0002:000045b8       ??_C@_1M@KBFBEHJF@?$AAe?$AAn?$AA?9?$AAA?$AAU@ 000000018002b5b8     libucrt:lcidtoname_downlevel.obj
 0002:000045c8       ??_C@_1M@MNPLFAAH@?$AAe?$AAs?$AA?9?$AAE?$AAS@ 000000018002b5c8     libucrt:lcidtoname_downlevel.obj
 0002:000045d8       ??_C@_1M@HJOOJFMA@?$AAf?$AAr?$AA?9?$AAC?$AAA@ 000000018002b5d8     libucrt:lcidtoname_downlevel.obj
 0002:000045e8       ??_C@_1BG@JPOFPNAB@?$AAs?$AAr?$AA?9?$AAS?$AAP?$AA?9?$AAC?$AAy?$AAr?$AAl@ 000000018002b5e8     libucrt:lcidtoname_downlevel.obj
 0002:00004600       ??_C@_1M@LNFOCMOB@?$AAs?$AAe?$AA?9?$AAF?$AAI@ 000000018002b600     libucrt:lcidtoname_downlevel.obj
 0002:00004610       ??_C@_1O@MGJBOAMB@?$AAq?$AAu?$AAz?$AA?9?$AAP?$AAE@ 000000018002b610     libucrt:lcidtoname_downlevel.obj
 0002:00004620       ??_C@_1M@GJINLBOK@?$AAa?$AAr?$AA?9?$AAL?$AAY@ 000000018002b620     libucrt:lcidtoname_downlevel.obj
 0002:00004630       ??_C@_1M@GGMNHJNL@?$AAz?$AAh?$AA?9?$AAS?$AAG@ 000000018002b630     libucrt:lcidtoname_downlevel.obj
 0002:00004640       ??_C@_1M@HOIKODND@?$AAd?$AAe?$AA?9?$AAL?$AAU@ 000000018002b640     libucrt:lcidtoname_downlevel.obj
 0002:00004650       ??_C@_1M@DDOCCGFG@?$AAe?$AAn?$AA?9?$AAC?$AAA@ 000000018002b650     libucrt:lcidtoname_downlevel.obj
 0002:00004660       ??_C@_1M@BNOEMJLF@?$AAe?$AAs?$AA?9?$AAG?$AAT@ 000000018002b660     libucrt:lcidtoname_downlevel.obj
 0002:00004670       ??_C@_1M@EOGNKEK@?$AAf?$AAr?$AA?9?$AAC?$AAH@ 000000018002b670     libucrt:lcidtoname_downlevel.obj
 0002:00004680       ??_C@_1M@FLIDJFHL@?$AAh?$AAr?$AA?9?$AAB?$AAA@ 000000018002b680     libucrt:lcidtoname_downlevel.obj
 0002:00004690       ??_C@_1O@FMCELNAJ@?$AAs?$AAm?$AAj?$AA?9?$AAN?$AAO@ 000000018002b690     libucrt:lcidtoname_downlevel.obj
 0002:000046a0       ??_C@_1M@JHGLJMGJ@?$AAa?$AAr?$AA?9?$AAD?$AAZ@ 000000018002b6a0     libucrt:lcidtoname_downlevel.obj
 0002:000046b0       ??_C@_1M@JKKFDCNP@?$AAz?$AAh?$AA?9?$AAM?$AAO@ 000000018002b6b0     libucrt:lcidtoname_downlevel.obj
 0002:000046c0       ??_C@_1M@GEEFALPE@?$AAd?$AAe?$AA?9?$AAL?$AAI@ 000000018002b6c0     libucrt:lcidtoname_downlevel.obj
 0002:000046d0       ??_C@_1M@IGEOFBG@?$AAe?$AAn?$AA?9?$AAN?$AAZ@ 000000018002b6d0     libucrt:lcidtoname_downlevel.obj
 0002:000046e0       ??_C@_1M@KDBONEHP@?$AAe?$AAs?$AA?9?$AAC?$AAR@ 000000018002b6e0     libucrt:lcidtoname_downlevel.obj
 0002:000046f0       ??_C@_1M@FHMDOHNN@?$AAf?$AAr?$AA?9?$AAL?$AAU@ 000000018002b6f0     libucrt:lcidtoname_downlevel.obj
 0002:00004700       ??_C@_1BG@NFKKMAFG@?$AAb?$AAs?$AA?9?$AAB?$AAA?$AA?9?$AAL?$AAa?$AAt?$AAn@ 000000018002b700     libucrt:lcidtoname_downlevel.obj
 0002:00004718       ??_C@_1O@IMNBEMCI@?$AAs?$AAm?$AAj?$AA?9?$AAS?$AAE@ 000000018002b718     libucrt:lcidtoname_downlevel.obj
 0002:00004728       ??_C@_1M@DHHMBNDP@?$AAa?$AAr?$AA?9?$AAM?$AAA@ 000000018002b728     libucrt:lcidtoname_downlevel.obj
 0002:00004738       ??_C@_1M@BNBLJCGH@?$AAe?$AAn?$AA?9?$AAI?$AAE@ 000000018002b738     libucrt:lcidtoname_downlevel.obj
 0002:00004748       ??_C@_1M@GEPAFMDL@?$AAe?$AAs?$AA?9?$AAP?$AAA@ 000000018002b748     libucrt:lcidtoname_downlevel.obj
 0002:00004758       ??_C@_1M@OJONDMDL@?$AAf?$AAr?$AA?9?$AAM?$AAC@ 000000018002b758     libucrt:lcidtoname_downlevel.obj
 0002:00004768       ??_C@_1BG@OBCNFJB@?$AAs?$AAr?$AA?9?$AAB?$AAA?$AA?9?$AAL?$AAa?$AAt?$AAn@ 000000018002b768     libucrt:lcidtoname_downlevel.obj
 0002:00004780       ??_C@_1O@KEMEEGPO@?$AAs?$AAm?$AAa?$AA?9?$AAN?$AAO@ 000000018002b780     libucrt:lcidtoname_downlevel.obj
 0002:00004790       ??_C@_1M@ELMGFODK@?$AAa?$AAr?$AA?9?$AAT?$AAN@ 000000018002b790     libucrt:lcidtoname_downlevel.obj
 0002:000047a0       ??_C@_1M@BHDLHFAF@?$AAe?$AAn?$AA?9?$AAZ?$AAA@ 000000018002b7a0     libucrt:lcidtoname_downlevel.obj
 0002:000047b0       ??_C@_1M@BMGIGLIF@?$AAe?$AAs?$AA?9?$AAD?$AAO@ 000000018002b7b0     libucrt:lcidtoname_downlevel.obj
 0002:000047c0       ??_C@_1BG@CMBHIPBE@?$AAs?$AAr?$AA?9?$AAB?$AAA?$AA?9?$AAC?$AAy?$AAr?$AAl@ 000000018002b7c0     libucrt:lcidtoname_downlevel.obj
 0002:000047d8       ??_C@_1O@HEDBLHNP@?$AAs?$AAm?$AAa?$AA?9?$AAS?$AAE@ 000000018002b7d8     libucrt:lcidtoname_downlevel.obj
 0002:000047e8       ??_C@_1M@DAGCADIM@?$AAa?$AAr?$AA?9?$AAO?$AAM@ 000000018002b7e8     libucrt:lcidtoname_downlevel.obj
 0002:000047f8       ??_C@_1M@FODLMICG@?$AAe?$AAn?$AA?9?$AAJ?$AAM@ 000000018002b7f8     libucrt:lcidtoname_downlevel.obj
 0002:00004808       ??_C@_1M@DNMLCIHB@?$AAe?$AAs?$AA?9?$AAV?$AAE@ 000000018002b808     libucrt:lcidtoname_downlevel.obj
 0002:00004818       ??_C@_1O@EOKHMKJK@?$AAs?$AAm?$AAs?$AA?9?$AAF?$AAI@ 000000018002b818     libucrt:lcidtoname_downlevel.obj
 0002:00004828       ??_C@_1M@CAFJMKOF@?$AAa?$AAr?$AA?9?$AAY?$AAE@ 000000018002b828     libucrt:lcidtoname_downlevel.obj
 0002:00004838       ??_C@_1M@CBFHIJLI@?$AAe?$AAn?$AA?9?$AAC?$AAB@ 000000018002b838     libucrt:lcidtoname_downlevel.obj
 0002:00004848       ??_C@_1M@BGNFLDN@?$AAe?$AAs?$AA?9?$AAC?$AAO@ 000000018002b848     libucrt:lcidtoname_downlevel.obj
 0002:00004858       ??_C@_1O@JMPHMAMC@?$AAs?$AAm?$AAn?$AA?9?$AAF?$AAI@ 000000018002b858     libucrt:lcidtoname_downlevel.obj
 0002:00004868       ??_C@_1M@JLANABKE@?$AAa?$AAr?$AA?9?$AAS?$AAY@ 000000018002b868     libucrt:lcidtoname_downlevel.obj
 0002:00004878       ??_C@_1M@HPKGCFGN@?$AAe?$AAn?$AA?9?$AAB?$AAZ@ 000000018002b878     libucrt:lcidtoname_downlevel.obj
 0002:00004888       ??_C@_1M@OLJCMLGM@?$AAe?$AAs?$AA?9?$AAP?$AAE@ 000000018002b888     libucrt:lcidtoname_downlevel.obj
 0002:00004898       ??_C@_1M@MKKGFKLE@?$AAa?$AAr?$AA?9?$AAJ?$AAO@ 000000018002b898     libucrt:lcidtoname_downlevel.obj
 0002:000048a8       ??_C@_1M@EKPGLDNI@?$AAe?$AAn?$AA?9?$AAT?$AAT@ 000000018002b8a8     libucrt:lcidtoname_downlevel.obj
 0002:000048b8       ??_C@_1M@OONGHFHE@?$AAe?$AAs?$AA?9?$AAA?$AAR@ 000000018002b8b8     libucrt:lcidtoname_downlevel.obj
 0002:000048c8       ??_C@_1M@OOJFGBHE@?$AAa?$AAr?$AA?9?$AAL?$AAB@ 000000018002b8c8     libucrt:lcidtoname_downlevel.obj
 0002:000048d8       ??_C@_1M@GCEJHNEG@?$AAe?$AAn?$AA?9?$AAZ?$AAW@ 000000018002b8d8     libucrt:lcidtoname_downlevel.obj
 0002:000048e8       ??_C@_1M@JNOCAHJI@?$AAe?$AAs?$AA?9?$AAE?$AAC@ 000000018002b8e8     libucrt:lcidtoname_downlevel.obj
 0002:000048f8       ??_C@_1M@JEFHPGGB@?$AAa?$AAr?$AA?9?$AAK?$AAW@ 000000018002b8f8     libucrt:lcidtoname_downlevel.obj
 0002:00004908       ??_C@_1M@MLKIBJOJ@?$AAe?$AAn?$AA?9?$AAP?$AAH@ 000000018002b908     libucrt:lcidtoname_downlevel.obj
 0002:00004918       ??_C@_1M@BDNIPEND@?$AAe?$AAs?$AA?9?$AAC?$AAL@ 000000018002b918     libucrt:lcidtoname_downlevel.obj
 0002:00004928       ??_C@_1M@MPNMEKBD@?$AAa?$AAr?$AA?9?$AAA?$AAE@ 000000018002b928     libucrt:lcidtoname_downlevel.obj
 0002:00004938       ??_C@_1M@KBJALCPI@?$AAe?$AAs?$AA?9?$AAU?$AAY@ 000000018002b938     libucrt:lcidtoname_downlevel.obj
 0002:00004948       ??_C@_1M@LLCCOAGA@?$AAa?$AAr?$AA?9?$AAB?$AAH@ 000000018002b948     libucrt:lcidtoname_downlevel.obj
 0002:00004958       ??_C@_1M@PBFNCDEL@?$AAe?$AAs?$AA?9?$AAP?$AAY@ 000000018002b958     libucrt:lcidtoname_downlevel.obj
 0002:00004968       ??_C@_1M@EDGINPNP@?$AAa?$AAr?$AA?9?$AAQ?$AAA@ 000000018002b968     libucrt:lcidtoname_downlevel.obj
 0002:00004978       ??_C@_1M@MKDBIIJI@?$AAe?$AAs?$AA?9?$AAB?$AAO@ 000000018002b978     libucrt:lcidtoname_downlevel.obj
 0002:00004988       ??_C@_1M@CPKKEBLD@?$AAe?$AAs?$AA?9?$AAS?$AAV@ 000000018002b988     libucrt:lcidtoname_downlevel.obj
 0002:00004998       ??_C@_1M@NDBGMMJL@?$AAe?$AAs?$AA?9?$AAH?$AAN@ 000000018002b998     libucrt:lcidtoname_downlevel.obj
 0002:000049a8       ??_C@_1M@JIJIBHDP@?$AAe?$AAs?$AA?9?$AAN?$AAI@ 000000018002b9a8     libucrt:lcidtoname_downlevel.obj
 0002:000049b8       ??_C@_1M@CGFMKEEK@?$AAe?$AAs?$AA?9?$AAP?$AAR@ 000000018002b9b8     libucrt:lcidtoname_downlevel.obj
 0002:000049c8       ??_C@_1O@ICJHKIIK@?$AAz?$AAh?$AA?9?$AAC?$AAH?$AAT@ 000000018002b9c8     libucrt:lcidtoname_downlevel.obj
 0002:000049d8       ??_C@_15CLNEJCE@?$AAs?$AAr@ 000000018002b9d8     libucrt:lcidtoname_downlevel.obj
 0002:00005820       ??_C@_1M@KAHEKEIG@?$AAa?$AAf?$AA?9?$AAz?$AAa@ 000000018002c820     libucrt:lcidtoname_downlevel.obj
 0002:00005830       ??_C@_1M@GIECOABL@?$AAa?$AAr?$AA?9?$AAa?$AAe@ 000000018002c830     libucrt:lcidtoname_downlevel.obj
 0002:00005840       ??_C@_1M@BMLMEKGI@?$AAa?$AAr?$AA?9?$AAb?$AAh@ 000000018002c840     libucrt:lcidtoname_downlevel.obj
 0002:00005850       ??_C@_1M@DAPFDGGB@?$AAa?$AAr?$AA?9?$AAd?$AAz@ 000000018002c850     libucrt:lcidtoname_downlevel.obj
 0002:00005860       ??_C@_1M@FJNKGKIG@?$AAa?$AAr?$AA?9?$AAe?$AAg@ 000000018002c860     libucrt:lcidtoname_downlevel.obj
 0002:00005870       ??_C@_1M@FLGKKCLO@?$AAa?$AAr?$AA?9?$AAi?$AAq@ 000000018002c870     libucrt:lcidtoname_downlevel.obj
 0002:00005880       ??_C@_1M@GNDIPALM@?$AAa?$AAr?$AA?9?$AAj?$AAo@ 000000018002c880     libucrt:lcidtoname_downlevel.obj
 0002:00005890       ??_C@_1M@DDMJFMGJ@?$AAa?$AAr?$AA?9?$AAk?$AAw@ 000000018002c890     libucrt:lcidtoname_downlevel.obj
 0002:000058a0       ??_C@_1M@EJALMLHM@?$AAa?$AAr?$AA?9?$AAl?$AAb@ 000000018002c8a0     libucrt:lcidtoname_downlevel.obj
 0002:000058b0       ??_C@_1M@MOBDBLOC@?$AAa?$AAr?$AA?9?$AAl?$AAy@ 000000018002c8b0     libucrt:lcidtoname_downlevel.obj
 0002:000058c0       ??_C@_1M@JAOCLHDH@?$AAa?$AAr?$AA?9?$AAm?$AAa@ 000000018002c8c0     libucrt:lcidtoname_downlevel.obj
 0002:000058d0       ??_C@_1M@JHPMKJIE@?$AAa?$AAr?$AA?9?$AAo?$AAm@ 000000018002c8d0     libucrt:lcidtoname_downlevel.obj
 0002:000058e0       ??_C@_1M@OEPGHFNH@?$AAa?$AAr?$AA?9?$AAq?$AAa@ 000000018002c8e0     libucrt:lcidtoname_downlevel.obj
 0002:000058f0       ??_C@_1M@KJDONENM@?$AAa?$AAr?$AA?9?$AAs?$AAa@ 000000018002c8f0     libucrt:lcidtoname_downlevel.obj
 0002:00005900       ??_C@_1M@DMJDKLKM@?$AAa?$AAr?$AA?9?$AAs?$AAy@ 000000018002c900     libucrt:lcidtoname_downlevel.obj
 0002:00005910       ??_C@_1M@OMFIPEDC@?$AAa?$AAr?$AA?9?$AAt?$AAn@ 000000018002c910     libucrt:lcidtoname_downlevel.obj
 0002:00005920       ??_C@_1M@IHMHGAON@?$AAa?$AAr?$AA?9?$AAy?$AAe@ 000000018002c920     libucrt:lcidtoname_downlevel.obj
 0002:00005930       ??_C@_1BG@KDCPGJGB@?$AAa?$AAz?$AA?9?$AAa?$AAz?$AA?9?$AAc?$AAy?$AAr?$AAl@ 000000018002c930     libucrt:lcidtoname_downlevel.obj
 0002:00005948       ??_C@_1BG@IBCKDDOE@?$AAa?$AAz?$AA?9?$AAa?$AAz?$AA?9?$AAl?$AAa?$AAt?$AAn@ 000000018002c948     libucrt:lcidtoname_downlevel.obj
 0002:00005960       ??_C@_1M@EGPFDCPD@?$AAb?$AAe?$AA?9?$AAb?$AAy@ 000000018002c960     libucrt:lcidtoname_downlevel.obj
 0002:00005970       ??_C@_1M@PCMGMCGC@?$AAb?$AAg?$AA?9?$AAb?$AAg@ 000000018002c970     libucrt:lcidtoname_downlevel.obj
 0002:00005980       ??_C@_1M@BJBMFGOB@?$AAb?$AAn?$AA?9?$AAi?$AAn@ 000000018002c980     libucrt:lcidtoname_downlevel.obj
 0002:00005990       ??_C@_1BG@EAKMMACD@?$AAb?$AAs?$AA?9?$AAb?$AAa?$AA?9?$AAl?$AAa?$AAt?$AAn@ 000000018002c990     libucrt:lcidtoname_downlevel.obj
 0002:000059a8       ??_C@_1M@KGADAODK@?$AAc?$AAa?$AA?9?$AAe?$AAs@ 000000018002c9a8     libucrt:lcidtoname_downlevel.obj
 0002:000059b8       ??_C@_1M@COAJPDHI@?$AAc?$AAs?$AA?9?$AAc?$AAz@ 000000018002c9b8     libucrt:lcidtoname_downlevel.obj
 0002:000059c8       ??_C@_1M@DHBHFONH@?$AAc?$AAy?$AA?9?$AAg?$AAb@ 000000018002c9c8     libucrt:lcidtoname_downlevel.obj
 0002:000059d8       ??_C@_1M@IMGKELGA@?$AAd?$AAa?$AA?9?$AAd?$AAk@ 000000018002c9d8     libucrt:lcidtoname_downlevel.obj
 0002:000059e8       ??_C@_1M@NNDGDNGA@?$AAd?$AAe?$AA?9?$AAa?$AAt@ 000000018002c9e8     libucrt:lcidtoname_downlevel.obj
 0002:000059f8       ??_C@_1M@IKDBHEEM@?$AAd?$AAe?$AA?9?$AAc?$AAh@ 000000018002c9f8     libucrt:lcidtoname_downlevel.obj
 0002:00005a08       ??_C@_1M@GFFOJMCJ@?$AAd?$AAe?$AA?9?$AAd?$AAe@ 000000018002ca08     libucrt:lcidtoname_downlevel.obj
 0002:00005a18       ??_C@_1M@MDNLKBPM@?$AAd?$AAe?$AA?9?$AAl?$AAi@ 000000018002ca18     libucrt:lcidtoname_downlevel.obj
 0002:00005a28       ??_C@_1M@NJBEEJNL@?$AAd?$AAe?$AA?9?$AAl?$AAu@ 000000018002ca28     libucrt:lcidtoname_downlevel.obj
 0002:00005a38       ??_C@_1O@GNNELBAP@?$AAd?$AAi?$AAv?$AA?9?$AAm?$AAv@ 000000018002ca38     libucrt:lcidtoname_downlevel.obj
 0002:00005a48       ??_C@_1M@EJLEOGAE@?$AAe?$AAl?$AA?9?$AAg?$AAr@ 000000018002ca48     libucrt:lcidtoname_downlevel.obj
 0002:00005a58       ??_C@_1M@GMPONJN@?$AAe?$AAn?$AA?9?$AAa?$AAu@ 000000018002ca58     libucrt:lcidtoname_downlevel.obj
 0002:00005a68       ??_C@_1M@NIDIIPGF@?$AAe?$AAn?$AA?9?$AAb?$AAz@ 000000018002ca68     libucrt:lcidtoname_downlevel.obj
 0002:00005a78       ??_C@_1M@JEHMIMFO@?$AAe?$AAn?$AA?9?$AAc?$AAa@ 000000018002ca78     libucrt:lcidtoname_downlevel.obj
 0002:00005a88       ??_C@_1M@IGMJCDLA@?$AAe?$AAn?$AA?9?$AAc?$AAb@ 000000018002ca88     libucrt:lcidtoname_downlevel.obj
 0002:00005a98       ??_C@_1M@BNFIGBKG@?$AAe?$AAn?$AA?9?$AAg?$AAb@ 000000018002ca98     libucrt:lcidtoname_downlevel.obj
 0002:00005aa8       ??_C@_1M@LKIFDIGP@?$AAe?$AAn?$AA?9?$AAi?$AAe@ 000000018002caa8     libucrt:lcidtoname_downlevel.obj
 0002:00005ab8       ??_C@_1M@PJKFGCCO@?$AAe?$AAn?$AA?9?$AAj?$AAm@ 000000018002cab8     libucrt:lcidtoname_downlevel.obj
 0002:00005ac8       ??_C@_1M@KPPKEPBO@?$AAe?$AAn?$AA?9?$AAn?$AAz@ 000000018002cac8     libucrt:lcidtoname_downlevel.obj
 0002:00005ad8       ??_C@_1M@GMDGLDOB@?$AAe?$AAn?$AA?9?$AAp?$AAh@ 000000018002cad8     libucrt:lcidtoname_downlevel.obj
 0002:00005ae8       ??_C@_1M@ONGIBJNA@?$AAe?$AAn?$AA?9?$AAt?$AAt@ 000000018002cae8     libucrt:lcidtoname_downlevel.obj
 0002:00005af8       ??_C@_1M@LLODPCMM@?$AAe?$AAn?$AA?9?$AAu?$AAs@ 000000018002caf8     libucrt:lcidtoname_downlevel.obj
 0002:00005b08       ??_C@_1M@LAKFNPAN@?$AAe?$AAn?$AA?9?$AAz?$AAa@ 000000018002cb08     libucrt:lcidtoname_downlevel.obj
 0002:00005b18       ??_C@_1M@MFNHNHEO@?$AAe?$AAn?$AA?9?$AAz?$AAw@ 000000018002cb18     libucrt:lcidtoname_downlevel.obj
 0002:00005b28       ??_C@_1M@EJEINPHM@?$AAe?$AAs?$AA?9?$AAa?$AAr@ 000000018002cb28     libucrt:lcidtoname_downlevel.obj
 0002:00005b38       ??_C@_1M@GNKPCCJA@?$AAe?$AAs?$AA?9?$AAb?$AAo@ 000000018002cb38     libucrt:lcidtoname_downlevel.obj
 0002:00005b48       ??_C@_1M@LEEGFONL@?$AAe?$AAs?$AA?9?$AAc?$AAl@ 000000018002cb48     libucrt:lcidtoname_downlevel.obj
 0002:00005b58       ??_C@_1M@KGPDPBDF@?$AAe?$AAs?$AA?9?$AAc?$AAo@ 000000018002cb58     libucrt:lcidtoname_downlevel.obj
 0002:00005b68       ??_C@_1M@EIAHOHH@?$AAe?$AAs?$AA?9?$AAc?$AAr@ 000000018002cb68     libucrt:lcidtoname_downlevel.obj
 0002:00005b78       ??_C@_1M@LLPGMBIN@?$AAe?$AAs?$AA?9?$AAd?$AAo@ 000000018002cb78     libucrt:lcidtoname_downlevel.obj
 0002:00005b88       ??_C@_1M@DKHMKNJA@?$AAe?$AAs?$AA?9?$AAe?$AAc@ 000000018002cb88     libucrt:lcidtoname_downlevel.obj
 0002:00005b98       ??_C@_1M@GKGFPKAP@?$AAe?$AAs?$AA?9?$AAe?$AAs@ 000000018002cb98     libucrt:lcidtoname_downlevel.obj
 0002:00005ba8       ??_C@_1M@LKHKGDLN@?$AAe?$AAs?$AA?9?$AAg?$AAt@ 000000018002cba8     libucrt:lcidtoname_downlevel.obj
 0002:00005bb8       ??_C@_1M@HEIIGGJD@?$AAe?$AAs?$AA?9?$AAh?$AAn@ 000000018002cbb8     libucrt:lcidtoname_downlevel.obj
 0002:00005bc8       ??_C@_1M@FBDHPPGD@?$AAe?$AAs?$AA?9?$AAm?$AAx@ 000000018002cbc8     libucrt:lcidtoname_downlevel.obj
 0002:00005bd8       ??_C@_1M@DPAGLNDH@?$AAe?$AAs?$AA?9?$AAn?$AAi@ 000000018002cbd8     libucrt:lcidtoname_downlevel.obj
 0002:00005be8       ??_C@_1M@MDGOPGDD@?$AAe?$AAs?$AA?9?$AAp?$AAa@ 000000018002cbe8     libucrt:lcidtoname_downlevel.obj
 0002:00005bf8       ??_C@_1M@EMAMGBGE@?$AAe?$AAs?$AA?9?$AAp?$AAe@ 000000018002cbf8     libucrt:lcidtoname_downlevel.obj
 0002:00005c08       ??_C@_1M@IBMCAOEC@?$AAe?$AAs?$AA?9?$AAp?$AAr@ 000000018002cc08     libucrt:lcidtoname_downlevel.obj
 0002:00005c18       ??_C@_1M@FGMDIJED@?$AAe?$AAs?$AA?9?$AAp?$AAy@ 000000018002cc18     libucrt:lcidtoname_downlevel.obj
 0002:00005c28       ??_C@_1M@IIDEOLLL@?$AAe?$AAs?$AA?9?$AAs?$AAv@ 000000018002cc28     libucrt:lcidtoname_downlevel.obj
 0002:00005c38       ??_C@_1M@GAOBIPA@?$AAe?$AAs?$AA?9?$AAu?$AAy@ 000000018002cc38     libucrt:lcidtoname_downlevel.obj
 0002:00005c48       ??_C@_1M@JKFFICHJ@?$AAe?$AAs?$AA?9?$AAv?$AAe@ 000000018002cc48     libucrt:lcidtoname_downlevel.obj
 0002:00005c58       ??_C@_1M@PNMLOJDF@?$AAe?$AAt?$AA?9?$AAe?$AAe@ 000000018002cc58     libucrt:lcidtoname_downlevel.obj
 0002:00005c68       ??_C@_1M@GHHLIKEI@?$AAe?$AAu?$AA?9?$AAe?$AAs@ 000000018002cc68     libucrt:lcidtoname_downlevel.obj
 0002:00005c78       ??_C@_1M@PBNONODE@?$AAf?$AAa?$AA?9?$AAi?$AAr@ 000000018002cc78     libucrt:lcidtoname_downlevel.obj
 0002:00005c88       ??_C@_1M@JEEHPMIL@?$AAf?$AAi?$AA?9?$AAf?$AAi@ 000000018002cc88     libucrt:lcidtoname_downlevel.obj
 0002:00005c98       ??_C@_1M@LMDCNDBA@?$AAf?$AAo?$AA?9?$AAf?$AAo@ 000000018002cc98     libucrt:lcidtoname_downlevel.obj
 0002:00005ca8       ??_C@_1M@JKEOHLDK@?$AAf?$AAr?$AA?9?$AAb?$AAe@ 000000018002cca8     libucrt:lcidtoname_downlevel.obj
 0002:00005cb8       ??_C@_1M@NOHADPMI@?$AAf?$AAr?$AA?9?$AAc?$AAa@ 000000018002ccb8     libucrt:lcidtoname_downlevel.obj
 0002:00005cc8       ??_C@_1M@KDHIHAEC@?$AAf?$AAr?$AA?9?$AAc?$AAh@ 000000018002ccc8     libucrt:lcidtoname_downlevel.obj
 0002:00005cd8       ??_C@_1M@MMBBFGAK@?$AAf?$AAr?$AA?9?$AAf?$AAr@ 000000018002ccd8     libucrt:lcidtoname_downlevel.obj
 0002:00005ce8       ??_C@_1M@PAFNENNF@?$AAf?$AAr?$AA?9?$AAl?$AAu@ 000000018002cce8     libucrt:lcidtoname_downlevel.obj
 0002:00005cf8       ??_C@_1M@EOHDJGDD@?$AAf?$AAr?$AA?9?$AAm?$AAc@ 000000018002ccf8     libucrt:lcidtoname_downlevel.obj
 0002:00005d08       ??_C@_1M@FAPLLOPF@?$AAg?$AAl?$AA?9?$AAe?$AAs@ 000000018002cd08     libucrt:lcidtoname_downlevel.obj
 0002:00005d18       ??_C@_1M@FOPBFLOO@?$AAg?$AAu?$AA?9?$AAi?$AAn@ 000000018002cd18     libucrt:lcidtoname_downlevel.obj
 0002:00005d28       ??_C@_1M@KBMCINPM@?$AAh?$AAe?$AA?9?$AAi?$AAl@ 000000018002cd28     libucrt:lcidtoname_downlevel.obj
 0002:00005d38       ??_C@_1M@BBPHKFPJ@?$AAh?$AAi?$AA?9?$AAi?$AAn@ 000000018002cd38     libucrt:lcidtoname_downlevel.obj
 0002:00005d48       ??_C@_1M@PMBNDPHD@?$AAh?$AAr?$AA?9?$AAb?$AAa@ 000000018002cd48     libucrt:lcidtoname_downlevel.obj
 0002:00005d58       ??_C@_1M@BPCKOEGE@?$AAh?$AAr?$AA?9?$AAh?$AAr@ 000000018002cd58     libucrt:lcidtoname_downlevel.obj
 0002:00005d68       ??_C@_1M@GACBMHKE@?$AAh?$AAu?$AA?9?$AAh?$AAu@ 000000018002cd68     libucrt:lcidtoname_downlevel.obj
 0002:00005d78       ??_C@_1M@MILPAJJC@?$AAh?$AAy?$AA?9?$AAa?$AAm@ 000000018002cd78     libucrt:lcidtoname_downlevel.obj
 0002:00005d88       ??_C@_1M@BABBICEC@?$AAi?$AAd?$AA?9?$AAi?$AAd@ 000000018002cd88     libucrt:lcidtoname_downlevel.obj
 0002:00005d98       ??_C@_1M@BIKNHHPF@?$AAi?$AAs?$AA?9?$AAi?$AAs@ 000000018002cd98     libucrt:lcidtoname_downlevel.obj
 0002:00005da8       ??_C@_1M@NMPCJPHE@?$AAi?$AAt?$AA?9?$AAc?$AAh@ 000000018002cda8     libucrt:lcidtoname_downlevel.obj
 0002:00005db8       ??_C@_1M@GHKGFEDF@?$AAi?$AAt?$AA?9?$AAi?$AAt@ 000000018002cdb8     libucrt:lcidtoname_downlevel.obj
 0002:00005dc8       ??_C@_1M@NIEJCJJA@?$AAj?$AAa?$AA?9?$AAj?$AAp@ 000000018002cdc8     libucrt:lcidtoname_downlevel.obj
 0002:00005dd8       ??_C@_1M@JILFNBIM@?$AAk?$AAa?$AA?9?$AAg?$AAe@ 000000018002cdd8     libucrt:lcidtoname_downlevel.obj
 0002:00005de8       ??_C@_1M@PACPMGPH@?$AAk?$AAk?$AA?9?$AAk?$AAz@ 000000018002cde8     libucrt:lcidtoname_downlevel.obj
 0002:00005df8       ??_C@_1M@IELFGMHA@?$AAk?$AAn?$AA?9?$AAi?$AAn@ 000000018002cdf8     libucrt:lcidtoname_downlevel.obj
 0002:00005e08       ??_C@_1O@IBBJHCH@?$AAk?$AAo?$AAk?$AA?9?$AAi?$AAn@ 000000018002ce08     libucrt:lcidtoname_downlevel.obj
 0002:00005e18       ??_C@_1M@DMHAEOGC@?$AAk?$AAo?$AA?9?$AAk?$AAr@ 000000018002ce18     libucrt:lcidtoname_downlevel.obj
 0002:00005e28       ??_C@_1M@HBAHBIGA@?$AAk?$AAy?$AA?9?$AAk?$AAg@ 000000018002ce28     libucrt:lcidtoname_downlevel.obj
 0002:00005e38       ??_C@_1M@KPMILCJG@?$AAl?$AAt?$AA?9?$AAl?$AAt@ 000000018002ce38     libucrt:lcidtoname_downlevel.obj
 0002:00005e48       ??_C@_1M@BDEKKCA@?$AAl?$AAv?$AA?9?$AAl?$AAv@ 000000018002ce48     libucrt:lcidtoname_downlevel.obj
 0002:00005e58       ??_C@_1M@ELCKCCJJ@?$AAm?$AAi?$AA?9?$AAn?$AAz@ 000000018002ce58     libucrt:lcidtoname_downlevel.obj
 0002:00005e68       ??_C@_1M@CBOOLAPA@?$AAm?$AAk?$AA?9?$AAm?$AAk@ 000000018002ce68     libucrt:lcidtoname_downlevel.obj
 0002:00005e78       ??_C@_1M@GPHNBJKN@?$AAm?$AAl?$AA?9?$AAi?$AAn@ 000000018002ce78     libucrt:lcidtoname_downlevel.obj
 0002:00005e88       ??_C@_1M@PABJILIG@?$AAm?$AAn?$AA?9?$AAm?$AAn@ 000000018002ce88     libucrt:lcidtoname_downlevel.obj
 0002:00005e98       ??_C@_1M@FGBKKIPG@?$AAm?$AAr?$AA?9?$AAi?$AAn@ 000000018002ce98     libucrt:lcidtoname_downlevel.obj
 0002:00005ea8       ??_C@_1M@NDBPDDAL@?$AAm?$AAs?$AA?9?$AAb?$AAn@ 000000018002cea8     libucrt:lcidtoname_downlevel.obj
 0002:00005eb8       ??_C@_1M@OPIHOOPI@?$AAm?$AAs?$AA?9?$AAm?$AAy@ 000000018002ceb8     libucrt:lcidtoname_downlevel.obj
 0002:00005ec8       ??_C@_1M@PPDBCNFM@?$AAm?$AAt?$AA?9?$AAm?$AAt@ 000000018002cec8     libucrt:lcidtoname_downlevel.obj
 0002:00005ed8       ??_C@_1M@KDJDKMDD@?$AAn?$AAb?$AA?9?$AAn?$AAo@ 000000018002ced8     libucrt:lcidtoname_downlevel.obj
 0002:00005ee8       ??_C@_1M@KFCFLMJP@?$AAn?$AAl?$AA?9?$AAb?$AAe@ 000000018002cee8     libucrt:lcidtoname_downlevel.obj
 0002:00005ef8       ??_C@_1M@KPOPDDGO@?$AAn?$AAl?$AA?9?$AAn?$AAl@ 000000018002cef8     libucrt:lcidtoname_downlevel.obj
 0002:00005f08       ??_C@_1M@LJKPEMLN@?$AAn?$AAn?$AA?9?$AAn?$AAo@ 000000018002cf08     libucrt:lcidtoname_downlevel.obj
 0002:00005f18       ??_C@_1M@BDGHHBFL@?$AAn?$AAs?$AA?9?$AAz?$AAa@ 000000018002cf18     libucrt:lcidtoname_downlevel.obj
 0002:00005f28       ??_C@_1M@IDEHOAP@?$AAp?$AAa?$AA?9?$AAi?$AAn@ 000000018002cf28     libucrt:lcidtoname_downlevel.obj
 0002:00005f38       ??_C@_1M@HDBKGOGH@?$AAp?$AAl?$AA?9?$AAp?$AAl@ 000000018002cf38     libucrt:lcidtoname_downlevel.obj
 0002:00005f48       ??_C@_1M@LJLLCMEH@?$AAp?$AAt?$AA?9?$AAb?$AAr@ 000000018002cf48     libucrt:lcidtoname_downlevel.obj
 0002:00005f58       ??_C@_1M@NCMONAAL@?$AAp?$AAt?$AA?9?$AAp?$AAt@ 000000018002cf58     libucrt:lcidtoname_downlevel.obj
 0002:00005f68       ??_C@_1O@EAKMAJDN@?$AAq?$AAu?$AAz?$AA?9?$AAb?$AAo@ 000000018002cf68     libucrt:lcidtoname_downlevel.obj
 0002:00005f78       ??_C@_1O@BHHPIGDN@?$AAq?$AAu?$AAz?$AA?9?$AAe?$AAc@ 000000018002cf78     libucrt:lcidtoname_downlevel.obj
 0002:00005f88       ??_C@_1O@GBAPEKMJ@?$AAq?$AAu?$AAz?$AA?9?$AAp?$AAe@ 000000018002cf88     libucrt:lcidtoname_downlevel.obj
 0002:00005f98       ??_C@_1M@CLGLEFBO@?$AAr?$AAo?$AA?9?$AAr?$AAo@ 000000018002cf98     libucrt:lcidtoname_downlevel.obj
 0002:00005fa8       ??_C@_1M@CEEDODME@?$AAr?$AAu?$AA?9?$AAr?$AAu@ 000000018002cfa8     libucrt:lcidtoname_downlevel.obj
 0002:00005fb8       ??_C@_1M@HPKKKMPP@?$AAs?$AAa?$AA?9?$AAi?$AAn@ 000000018002cfb8     libucrt:lcidtoname_downlevel.obj
 0002:00005fc8       ??_C@_1M@BKMAIGOJ@?$AAs?$AAe?$AA?9?$AAf?$AAi@ 000000018002cfc8     libucrt:lcidtoname_downlevel.obj
 0002:00005fd8       ??_C@_1M@NDPIFLFI@?$AAs?$AAe?$AA?9?$AAn?$AAo@ 000000018002cfd8     libucrt:lcidtoname_downlevel.obj
 0002:00005fe8       ??_C@_1M@DANKKHJ@?$AAs?$AAe?$AA?9?$AAs?$AAe@ 000000018002cfe8     libucrt:lcidtoname_downlevel.obj
 0002:00005ff8       ??_C@_1M@PNBLONPJ@?$AAs?$AAk?$AA?9?$AAs?$AAk@ 000000018002cff8     libucrt:lcidtoname_downlevel.obj
 0002:00006008       ??_C@_1M@LFMODOAL@?$AAs?$AAl?$AA?9?$AAs?$AAi@ 000000018002d008     libucrt:lcidtoname_downlevel.obj
 0002:00006018       ??_C@_1O@DFKOMPG@?$AAs?$AAm?$AAa?$AA?9?$AAn?$AAo@ 000000018002d018     libucrt:lcidtoname_downlevel.obj
 0002:00006028       ??_C@_1O@NDKPBNNH@?$AAs?$AAm?$AAa?$AA?9?$AAs?$AAe@ 000000018002d028     libucrt:lcidtoname_downlevel.obj
 0002:00006038       ??_C@_1O@PLLKBHAB@?$AAs?$AAm?$AAj?$AA?9?$AAn?$AAo@ 000000018002d038     libucrt:lcidtoname_downlevel.obj
 0002:00006048       ??_C@_1O@CLEPOGCA@?$AAs?$AAm?$AAj?$AA?9?$AAs?$AAe@ 000000018002d048     libucrt:lcidtoname_downlevel.obj
 0002:00006058       ??_C@_1O@DLGJGKMK@?$AAs?$AAm?$AAn?$AA?9?$AAf?$AAi@ 000000018002d058     libucrt:lcidtoname_downlevel.obj
 0002:00006068       ??_C@_1O@OJDJGAJC@?$AAs?$AAm?$AAs?$AA?9?$AAf?$AAi@ 000000018002d068     libucrt:lcidtoname_downlevel.obj
 0002:00006078       ??_C@_1M@BOFOGHPB@?$AAs?$AAq?$AA?9?$AAa?$AAl@ 000000018002d078     libucrt:lcidtoname_downlevel.obj
 0002:00006088       ??_C@_1BG@LJBBIPGB@?$AAs?$AAr?$AA?9?$AAb?$AAa?$AA?9?$AAc?$AAy?$AAr?$AAl@ 000000018002d088     libucrt:lcidtoname_downlevel.obj
 0002:000060a0       ??_C@_1BG@JLBENFOE@?$AAs?$AAr?$AA?9?$AAb?$AAa?$AA?9?$AAl?$AAa?$AAt?$AAn@ 000000018002d0a0     libucrt:lcidtoname_downlevel.obj
 0002:000060b8       ??_C@_1BG@KODPNHE@?$AAs?$AAr?$AA?9?$AAs?$AAp?$AA?9?$AAc?$AAy?$AAr?$AAl@ 000000018002d0b8     libucrt:lcidtoname_downlevel.obj
 0002:000060d0       ??_C@_1BG@CIOGKHPB@?$AAs?$AAr?$AA?9?$AAs?$AAp?$AA?9?$AAl?$AAa?$AAt?$AAn@ 000000018002d0d0     libucrt:lcidtoname_downlevel.obj
 0002:000060e8       ??_C@_1M@NGFJLMAC@?$AAs?$AAv?$AA?9?$AAf?$AAi@ 000000018002d0e8     libucrt:lcidtoname_downlevel.obj
 0002:000060f8       ??_C@_1M@MPJEJAJC@?$AAs?$AAv?$AA?9?$AAs?$AAe@ 000000018002d0f8     libucrt:lcidtoname_downlevel.obj
 0002:00006108       ??_C@_1M@MPNDHLFK@?$AAs?$AAw?$AA?9?$AAk?$AAe@ 000000018002d108     libucrt:lcidtoname_downlevel.obj
 0002:00006118       ??_C@_1O@KOHBJJI@?$AAs?$AAy?$AAr?$AA?9?$AAs?$AAy@ 000000018002d118     libucrt:lcidtoname_downlevel.obj
 0002:00006128       ??_C@_1M@LDCEFHA@?$AAt?$AAa?$AA?9?$AAi?$AAn@ 000000018002d128     libucrt:lcidtoname_downlevel.obj
 0002:00006138       ??_C@_1M@CNJOFAK@?$AAt?$AAe?$AA?9?$AAi?$AAn@ 000000018002d138     libucrt:lcidtoname_downlevel.obj
 0002:00006148       ??_C@_1M@GNAECACD@?$AAt?$AAh?$AA?9?$AAt?$AAh@ 000000018002d148     libucrt:lcidtoname_downlevel.obj
 0002:00006158       ??_C@_1M@CHBIHOJO@?$AAt?$AAn?$AA?9?$AAz?$AAa@ 000000018002d158     libucrt:lcidtoname_downlevel.obj
 0002:00006168       ??_C@_1M@GCCMIGPJ@?$AAt?$AAr?$AA?9?$AAt?$AAr@ 000000018002d168     libucrt:lcidtoname_downlevel.obj
 0002:00006178       ??_C@_1M@CELMCNBK@?$AAt?$AAt?$AA?9?$AAr?$AAu@ 000000018002d178     libucrt:lcidtoname_downlevel.obj
 0002:00006188       ??_C@_1M@KLMCELGA@?$AAu?$AAk?$AA?9?$AAu?$AAa@ 000000018002d188     libucrt:lcidtoname_downlevel.obj
 0002:00006198       ??_C@_1M@EPAJJAJF@?$AAu?$AAr?$AA?9?$AAp?$AAk@ 000000018002d198     libucrt:lcidtoname_downlevel.obj
 0002:000061a8       ??_C@_1BG@GEGPMCDJ@?$AAu?$AAz?$AA?9?$AAu?$AAz?$AA?9?$AAc?$AAy?$AAr?$AAl@ 000000018002d1a8     libucrt:lcidtoname_downlevel.obj
 0002:000061c0       ??_C@_1BG@EGGKJILM@?$AAu?$AAz?$AA?9?$AAu?$AAz?$AA?9?$AAl?$AAa?$AAt?$AAn@ 000000018002d1c0     libucrt:lcidtoname_downlevel.obj
 0002:000061d8       ??_C@_1M@GFOCLFF@?$AAv?$AAi?$AA?9?$AAv?$AAn@ 000000018002d1d8     libucrt:lcidtoname_downlevel.obj
 0002:000061e8       ??_C@_1M@CPAMEDFI@?$AAx?$AAh?$AA?9?$AAz?$AAa@ 000000018002d1e8     libucrt:lcidtoname_downlevel.obj
 0002:000061f8       ??_C@_1O@EBKIFIGN@?$AAz?$AAh?$AA?9?$AAc?$AAh?$AAs@ 000000018002d1f8     libucrt:lcidtoname_downlevel.obj
 0002:00006208       ??_C@_1O@NMHPGANE@?$AAz?$AAh?$AA?9?$AAc?$AAh?$AAt@ 000000018002d208     libucrt:lcidtoname_downlevel.obj
 0002:00006218       ??_C@_1M@LPINJOMC@?$AAz?$AAh?$AA?9?$AAc?$AAn@ 000000018002d218     libucrt:lcidtoname_downlevel.obj
 0002:00006228       ??_C@_1M@OCJEJODD@?$AAz?$AAh?$AA?9?$AAh?$AAk@ 000000018002d228     libucrt:lcidtoname_downlevel.obj
 0002:00006238       ??_C@_1M@DNDLJINH@?$AAz?$AAh?$AA?9?$AAm?$AAo@ 000000018002d238     libucrt:lcidtoname_downlevel.obj
 0002:00006248       ??_C@_1M@MBFDNDND@?$AAz?$AAh?$AA?9?$AAs?$AAg@ 000000018002d248     libucrt:lcidtoname_downlevel.obj
 0002:00006258       ??_C@_1M@IMEPLEPE@?$AAz?$AAh?$AA?9?$AAt?$AAw@ 000000018002d258     libucrt:lcidtoname_downlevel.obj
 0002:00006268       ??_C@_1M@BBGHNHJP@?$AAz?$AAu?$AA?9?$AAz?$AAa@ 000000018002d268     libucrt:lcidtoname_downlevel.obj
 0002:00006280       ?large_power_data@?1??multiply_by_power_of_ten@__crt_strtox@@YA_NAEAUbig_integer@2@I@Z@4QBIB 000000018002d280     libucrt:cfout.obj
 0002:00006c28       ?small_powers_of_ten@?1??multiply_by_power_of_ten@__crt_strtox@@YA_NAEAUbig_integer@2@I@Z@4QBIB 000000018002dc28     libucrt:cfout.obj
 0002:00006c4c       ??_C@_01GBGANLPD@0@        000000018002dc4c     libucrt:cfout.obj
 0002:00006c50       ??_C@_05DNEBIAHO@1?$CDINF@ 000000018002dc50     libucrt:cfout.obj
 0002:00006c58       ??_C@_06IMKFLFPG@1?$CDQNAN@ 000000018002dc58     libucrt:cfout.obj
 0002:00006c60       ??_C@_06PGGFOGJG@1?$CDSNAN@ 000000018002dc60     libucrt:cfout.obj
 0002:00006c68       ??_C@_05PHHOCPM@1?$CDIND@  000000018002dc68     libucrt:cfout.obj
 0002:00006c70       __real@3ff0000000000000    000000018002dc70     libucrt:ceil.obj
 0002:00006ed0       ??_C@_1BA@BALFACEM@?$AAC?$AAO?$AAN?$AAO?$AAU?$AAT?$AA$@ 000000018002ded0     libucrt:initcon.obj
 0002:00006ee0       __log10_256_lead           000000018002dee0     libucrt:log10_256_lead_tail_table.obj
 0002:000076f0       __log10_256_tail           000000018002e6f0     libucrt:log10_256_lead_tail_table.obj
 0002:00007f00       __log_F_inv_qword          000000018002ef00     libucrt:log_f_inv_qword_table.obj
 0002:00008710       ??_C@_05HGHHAHAP@log10@    000000018002f710     libucrt:log_special.obj
 0002:00008730       ??_C@_1BK@DBDEIDLH@?$AAK?$AAE?$AAR?$AAN?$AAE?$AAL?$AA3?$AA2?$AA?4?$AAD?$AAL?$AAL@ 000000018002f730     DelayImp:delayhlp.obj
 0002:00008750       ??_C@_0BI@OMNLIJDB@AcquireSRWLockExclusive@ 000000018002f750     DelayImp:delayhlp.obj
 0002:00008768       ??_C@_0BI@HMIEPCNJ@ReleaseSRWLockExclusive@ 000000018002f768     DelayImp:delayhlp.obj
 0002:00008780       __pfnDliFailureHook2       000000018002f780     DelayImp:delayhk1.obj
 0002:00008790       _load_config_used          000000018002f790     LIBCMT:loadcfg.obj
 0002:000088a0       ??_C@_1KK@MAEBPKNC@?$AAC?$AA?3?$AA?2?$AAU?$AAs?$AAe?$AAr?$AAs?$AA?2?$AAl?$AAi?$AAv?$AAe?$AAl?$AA?2@ 000000018002f8a0     addon.obj
 0002:00008950       ??_C@_1FM@LOELJOFK@?$AAs?$AAi?$AAz?$AAe?$AA?5?$AA?$DM?$AA?$DN?$AA?5?$AAi?$AAm?$AAp?$AA?3?$AA?3?$AAk?$AAM@ 000000018002f950     addon.obj
 0002:000089b0       ??_C@_0BF@NGLLGBDB@Not?5enough?5arguments@ 000000018002f9b0     addon.obj
 0002:000089c8       ??_C@_0P@OBMHHPNG@Expected?5Point@ 000000018002f9c8     addon.obj
 0002:000089d8       ??_C@_0P@KGBGBHJI@Expected?5Tweak@ 000000018002f9d8     addon.obj
 0002:000089e8       ??_C@_0BB@GNPEDGHN@Expected?5Private@ 000000018002f9e8     addon.obj
 0002:00008a00       ??_C@_0O@GJCLFBDO@Expected?5Hash@ 000000018002fa00     addon.obj
 0002:00008a10       ??_C@_0BD@MONECMKB@Expected?5Signature@ 000000018002fa10     addon.obj
 0002:00008a28       ??_C@_07NACBFLIK@isPoint@  000000018002fa28     addon.obj
 0002:00008a30       ??_C@_0BC@FKLOJNHA@isPointCompressed@ 000000018002fa30     addon.obj
 0002:00008a48       ??_C@_09EHPJPBBC@isPrivate@ 000000018002fa48     addon.obj
 0002:00008a58       ??_C@_08KNPLEJIH@pointAdd@ 000000018002fa58     addon.obj
 0002:00008a68       ??_C@_0P@MLHCGDDG@pointAddScalar@ 000000018002fa68     addon.obj
 0002:00008a78       ??_C@_0O@HHILBBMA@pointCompress@ 000000018002fa78     addon.obj
 0002:00008a88       ??_C@_0BA@DCNAMCCM@pointFromScalar@ 000000018002fa88     addon.obj
 0002:00008a98       ??_C@_0O@PCLGKDOK@pointMultiply@ 000000018002fa98     addon.obj
 0002:00008aa8       ??_C@_0L@IDFOOEBB@privateAdd@ 000000018002faa8     addon.obj
 0002:00008ab8       ??_C@_0L@DCPABFME@privateSub@ 000000018002fab8     addon.obj
 0002:00008ac4       ??_C@_04HHGHLBPI@sign@     000000018002fac4     addon.obj
 0002:00008acc       ??_C@_06MCIJCFHC@verify@   000000018002facc     addon.obj
 0002:00008ae0       ??_C@_0GL@MFLFHGND@C?3?2Users?2livel?2Dropbox?2coding?2u@ 000000018002fae0     addon.obj
 0002:00008b50       ??_C@_09NCBPAPNE@secp256k1@ 000000018002fb50     addon.obj
 0002:00008b80       secp256k1_nonce_function_rfc6979 000000018002fb80     secp256k1.obj
 0002:00008ba0       CURVE_B                    000000018002fba0     secp256k1.obj
 0002:00008c58       secp256k1_nonce_function_default 000000018002fc58     secp256k1.obj
 0002:00008d00       __pfnDliNotifyHook2        000000018002fd00     win_delay_load_hook.obj
 0002:00008d08       ??_C@_0O@NALGGDJF@Out?5of?5memory@ 000000018002fd08     secp256k1.obj
 0002:00008d18       ??_C@_0CF@PNAFLMBB@?$FLlibsecp256k1?$FN?5illegal?5argument@ 000000018002fd18     secp256k1.obj
 0002:00008d40       ??_C@_0DG@BJLECLHN@?$FLlibsecp256k1?$FN?5internal?5consist@ 000000018002fd40     secp256k1.obj
 0002:00008d78       ??_C@_0BO@MEDHMLE@?$CBsecp256k1_fe_is_zero?$CI?$CGge?9?$DOx?$CJ@ 000000018002fd78     secp256k1.obj
 0002:00008d98       ??_C@_0P@BLGFIEHN@pubkey?5?$CB?$DN?5NULL@ 000000018002fd98     secp256k1.obj
 0002:00008da8       ??_C@_0O@OLCODGMC@input?5?$CB?$DN?5NULL@ 000000018002fda8     secp256k1.obj
 0002:00008db8       ??_C@_0BC@IEFMPDJH@outputlen?5?$CB?$DN?5NULL@ 000000018002fdb8     secp256k1.obj
 0002:00008dd0       ??_C@_0EE@LNKHCOIM@?$CKoutputlen?5?$DO?$DN?5?$CI?$CIflags?5?$CG?5SECP256@ 000000018002fdd0     secp256k1.obj
 0002:00008e18       ??_C@_0P@DJOPKHCB@output?5?$CB?$DN?5NULL@ 000000018002fe18     secp256k1.obj
 0002:00008e30       ??_C@_0EI@PFCFBFCO@?$CIflags?5?$CG?5SECP256K1_FLAGS_TYPE_M@ 000000018002fe30     secp256k1.obj
 0002:00008e78       ??_C@_0M@IIDFJBPK@sig?5?$CB?$DN?5NULL@ 000000018002fe78     secp256k1.obj
 0002:00008e88       ??_C@_0BA@NEGFEDPL@input64?5?$CB?$DN?5NULL@ 000000018002fe88     secp256k1.obj
 0002:00008e98       ??_C@_0BB@CGDOJCMH@output64?5?$CB?$DN?5NULL@ 000000018002fe98     secp256k1.obj
 0002:00008eb0       ??_C@_0O@MODIJFDD@sigin?5?$CB?$DN?5NULL@ 000000018002feb0     secp256k1.obj
 0002:00008ec0       ??_C@_0DE@OCLDJJOD@secp256k1_ecmult_context_is_bui@ 000000018002fec0     secp256k1.obj
 0002:00008ef8       ??_C@_0O@NEHANPEF@msg32?5?$CB?$DN?5NULL@ 000000018002fef8     secp256k1.obj
 0002:00008f08       ??_C@_0DM@OKJIJIHN@secp256k1_ecmult_gen_context_is@ 000000018002ff08     secp256k1.obj
 0002:00008f48       ??_C@_0BC@MDDDGEFK@signature?5?$CB?$DN?5NULL@ 000000018002ff48     secp256k1.obj
 0002:00008f60       ??_C@_0P@LBDMALON@seckey?5?$CB?$DN?5NULL@ 000000018002ff60     secp256k1.obj
 0002:00008f70       ??_C@_0O@FFMFCBAH@tweak?5?$CB?$DN?5NULL@ 000000018002ff70     secp256k1.obj
 0002:00008f80       ??_C@_0BB@LBEEDEP@pubnonce?5?$CB?$DN?5NULL@ 000000018002ff80     secp256k1.obj
 0002:00008f98       ??_C@_0BC@NKDOGIIF@pubnonces?5?$CB?$DN?5NULL@ 000000018002ff98     secp256k1.obj
 0002:00008fb0       ??_C@_08JDDNMFDB@node?4exe@ 000000018002ffb0     win_delay_load_hook.obj
 0002:00008fc0       __xmm@01010101010101010101010101010101 000000018002ffc0     secp256k1.obj
 0002:00008fd0       __xmm@5c5c5c5c5c5c5c5c5c5c5c5c5c5c5c5c 000000018002ffd0     secp256k1.obj
 0002:00008fe0       __xmm@6a6a6a6a6a6a6a6a6a6a6a6a6a6a6a6a 000000018002ffe0     secp256k1.obj
 0002:00009420       __rtc_iaa                  0000000180030420     LIBCMT:initsect.obj
 0002:00009428       __rtc_izz                  0000000180030428     LIBCMT:initsect.obj
 0002:00009430       __rtc_taa                  0000000180030430     LIBCMT:initsect.obj
 0002:00009438       __rtc_tzz                  0000000180030438     LIBCMT:initsect.obj
 0002:0000ae10       __DELAY_IMPORT_DESCRIPTOR_node_exe 0000000180031e10     node:node.exe
 0002:0000ae30       __NULL_DELAY_IMPORT_DESCRIPTOR 0000000180031e30     node:node.exe
 0002:0000af28       \177node_NULL_THUNK_DATA_DLN 0000000180031f28     node:node.exe
 0002:0000b6b0       \177node_NULL_THUNK_DATA_DLB 00000001800326b0     node:node.exe
 0002:0000b7e8       __IMPORT_DESCRIPTOR_KERNEL32 00000001800327e8     kernel32:KERNEL32.dll
 0002:0000b7fc       __NULL_IMPORT_DESCRIPTOR   00000001800327fc     kernel32:KERNEL32.dll
 0003:00000000       __security_cookie_complement 0000000180033000     LIBCMT:gs_cookie.obj
 0003:00000008       __security_cookie          0000000180033008     LIBCMT:gs_cookie.obj
 0003:00000010       __scrt_native_dllmain_reason 0000000180033010     LIBCMT:utility.obj
 0003:00000018       __isa_available            0000000180033018     LIBCMT:cpu_disp.obj
 0003:0000001c       __isa_enabled              000000018003301c     LIBCMT:cpu_disp.obj
 0003:00000020       __memcpy_nt_iters          0000000180033020     LIBCMT:cpu_disp.obj
 0003:00000028       __memset_nt_iters          0000000180033028     LIBCMT:cpu_disp.obj
 0003:00000040       __abort_behavior           0000000180033040     libucrt:abort.obj
 0003:00000050       _iob                       0000000180033050     libucrt:_file.obj
 0003:00000170       __badioinfo                0000000180033170     libucrt:ioinit.obj
 0003:000001c0       __acrt_initial_locale_data 00000001800331c0     libucrt:nlsdata.obj
 0003:00000318       __acrt_initial_locale_pointers 0000000180033318     libucrt:nlsdata.obj
 0003:00000328       __acrt_wide_c_locale_string 0000000180033328     libucrt:nlsdata.obj
 0003:00000330       __acrt_initial_multibyte_data 0000000180033330     libucrt:mbctype.obj
 0003:00000870       _pwctype                   0000000180033870     libucrt:ctype.obj
 0003:00000878       __globallocalestatus       0000000180033878     libucrt:glstatus.obj
 0003:00000880       __acrt_lconv_c             0000000180033880     libucrt:localeconv.obj
 0003:00000918       __acrt_lconv_static_decimal 0000000180033918     libucrt:localeconv.obj
 0003:0000091c       __acrt_lconv_static_W_decimal 000000018003391c     libucrt:localeconv.obj
 0003:00000920       _lookuptrailbytes          0000000180033920     libucrt:read.obj
 0003:00000a40       _fltused                   0000000180033a40     LIBCMT:fltused.obj
 0003:00000a90       __imp_?Value@External@v8@@QEBAPEAXXZ 0000000180033a90     node:node.exe
 0003:00000a98       __imp_?New@External@v8@@SA?AV?$Local@VExternal@v8@@@2@PEAVIsolate@2@PEAX@Z 0000000180033a98     node:node.exe
 0003:00000aa0       __imp_?ThrowException@Isolate@v8@@QEAA?AV?$Local@VValue@v8@@@2@V32@@Z 0000000180033aa0     node:node.exe
 0003:00000aa8       __imp_?GetCurrentContext@Isolate@v8@@QEAA?AV?$Local@VContext@v8@@@2@XZ 0000000180033aa8     node:node.exe
 0003:00000ab0       __imp_?GetCurrent@Isolate@v8@@SAPEAV12@XZ 0000000180033ab0     node:node.exe
 0003:00000ab8       __imp_?CreateHandle@HandleScope@v8@@CAPEAPEAVObject@internal@2@PEAVHeapObject@42@PEAV342@@Z 0000000180033ab8     node:node.exe
 0003:00000ac0       __imp_??1HandleScope@v8@@QEAA@XZ 0000000180033ac0     node:node.exe
 0003:00000ac8       __imp_??0HandleScope@v8@@QEAA@PEAVIsolate@1@@Z 0000000180033ac8     node:node.exe
 0003:00000ad0       __imp_?TypeError@Exception@v8@@SA?AV?$Local@VValue@v8@@@2@V?$Local@VString@v8@@@2@@Z 0000000180033ad0     node:node.exe
 0003:00000ad8       __imp_?GetFunction@FunctionTemplate@v8@@QEAA?AV?$MaybeLocal@VFunction@v8@@@2@V?$Local@VContext@v8@@@2@@Z 0000000180033ad8     node:node.exe
 0003:00000ae0       __imp_?New@FunctionTemplate@v8@@SA?AV?$Local@VFunctionTemplate@v8@@@2@PEAVIsolate@2@P6AXAEBV?$FunctionCallbackInfo@VValue@v8@@@2@@ZV?$Local@VValue@v8@@@2@V?$Local@VSignature@v8@@@2@HW4ConstructorBehavior@2@W4SideEffectType@2@@Z 0000000180033ae0     node:node.exe
 0003:00000ae8       __imp_?ToLocalEmpty@V8@v8@@CAXXZ 0000000180033ae8     node:node.exe
 0003:00000af0       __imp_?BooleanValue@Value@v8@@QEBA_NXZ 0000000180033af0     node:node.exe
 0003:00000af8       __imp_?Escape@EscapableHandleScope@v8@@AEAAPEAPEAVObject@internal@2@PEAPEAV342@@Z 0000000180033af8     node:node.exe
 0003:00000b00       __imp_??0EscapableHandleScope@v8@@QEAA@PEAVIsolate@1@@Z 0000000180033b00     node:node.exe
 0003:00000b08       __imp_?NewFromUtf8@String@v8@@SA?AV?$MaybeLocal@VString@v8@@@2@PEAVIsolate@2@PEBDW4NewStringType@2@H@Z 0000000180033b08     node:node.exe
 0003:00000b10       __imp_?SlowGetInternalField@Object@v8@@AEAA?AV?$Local@VValue@v8@@@2@H@Z 0000000180033b10     node:node.exe
 0003:00000b18       __imp_?SetInternalField@Object@v8@@QEAAXHV?$Local@VValue@v8@@@2@@Z 0000000180033b18     node:node.exe
 0003:00000b20       __imp_?Set@Object@v8@@QEAA?AV?$Maybe@_N@2@V?$Local@VContext@v8@@@2@V?$Local@VValue@v8@@@2@1@Z 0000000180033b20     node:node.exe
 0003:00000b28       __imp_?SetInternalFieldCount@ObjectTemplate@v8@@QEAAXH@Z 0000000180033b28     node:node.exe
 0003:00000b30       __imp_?NewInstance@ObjectTemplate@v8@@QEAA?AV?$MaybeLocal@VObject@v8@@@2@V?$Local@VContext@v8@@@2@@Z 0000000180033b30     node:node.exe
 0003:00000b38       __imp_?New@ObjectTemplate@v8@@SA?AV?$Local@VObjectTemplate@v8@@@2@PEAVIsolate@2@V?$Local@VFunctionTemplate@v8@@@2@@Z 0000000180033b38     node:node.exe
 0003:00000b40       __imp_node_module_register 0000000180033b40     node:node.exe
 0003:00000b48       __imp_?HasInstance@Buffer@node@@YA_NV?$Local@VObject@v8@@@v8@@@Z 0000000180033b48     node:node.exe
 0003:00000b50       __imp_?Data@Buffer@node@@YAPEADV?$Local@VObject@v8@@@v8@@@Z 0000000180033b50     node:node.exe
 0003:00000b58       __imp_?Copy@Buffer@node@@YA?AV?$MaybeLocal@VObject@v8@@@v8@@PEAVIsolate@4@PEBD_K@Z 0000000180033b58     node:node.exe
 0003:00000b60       __imp_?Length@Buffer@node@@YA_KV?$Local@VObject@v8@@@v8@@@Z 0000000180033b60     node:node.exe
 0003:00000b68       \177node_NULL_THUNK_DATA_DLA 0000000180033b68     node:node.exe
 0003:00000b70       __hmod__node_exe           0000000180033b70     node:node.exe
 0003:000010f0       ?__type_info_root_node@@3U__type_info_node@@A 00000001800340f0     LIBCMT:tncleanup.obj
 0003:00001100       ?_OptionsStorage@?1??__local_stdio_scanf_options@@9@4_KA 0000000180034100     LIBCMT:default_local_stdio_options.obj
 0003:00001108       __scrt_current_native_startup_state 0000000180034108     LIBCMT:utility.obj
 0003:00001110       __scrt_native_startup_lock 0000000180034110     LIBCMT:utility.obj
 0003:00001150       __scrt_debugger_hook_flag  0000000180034150     LIBCMT:utility_desktop.obj
 0003:00001154       __favor                    0000000180034154     LIBCMT:cpu_disp.obj
 0003:00001158       ?__WinRTOutOfMemoryExceptionCallback@@3P6APEAXXZEA 0000000180034158     libvcruntime:ehhelpers.obj
 0003:00001160       ?pArgList@UnDecorator@@0PEAVReplicator@@EA 0000000180034160     libvcruntime:undname.obj
 0003:00001168       ?pZNameList@UnDecorator@@0PEAVReplicator@@EA 0000000180034168     libvcruntime:undname.obj
 0003:00001170       ?pTemplateArgList@UnDecorator@@0PEAVReplicator@@EA 0000000180034170     libvcruntime:undname.obj
 0003:00001178       ?gName@UnDecorator@@0PEBDEB 0000000180034178     libvcruntime:undname.obj
 0003:00001180       ?name@UnDecorator@@0PEBDEB 0000000180034180     libvcruntime:undname.obj
 0003:00001188       ?disableFlags@UnDecorator@@0KA 0000000180034188     libvcruntime:undname.obj
 0003:0000118c       ?fExplicitTemplateParams@UnDecorator@@0_NA 000000018003418c     libvcruntime:undname.obj
 0003:0000118d       ?fGetTemplateArgumentList@UnDecorator@@0_NA 000000018003418d     libvcruntime:undname.obj
 0003:00001190       ?m_pGetParameter@UnDecorator@@0P6APEADJ@ZEA 0000000180034190     libvcruntime:undname.obj
 0003:00001198       ?m_CHPENameOffset@UnDecorator@@0KA 0000000180034198     libvcruntime:undname.obj
 0003:0000119c       ?m_recursionLevel@UnDecorator@@0KA 000000018003419c     libvcruntime:undname.obj
 0003:000012c0       __pPurecall                00000001800342c0     libvcruntime:purevirt_data.obj
 0003:000012c8       _nstream                   00000001800342c8     libucrt:_file.obj
 0003:000012d0       __piob                     00000001800342d0     libucrt:_file.obj
 0003:000012d8       _cflush                    00000001800342d8     libucrt:_file.obj
 0003:000012e8       ?c_exit_complete@?1???R<lambda_6e4b09c48022b2350581041d5f6b0c4c>@@QEBA@XZ@4_NA 00000001800342e8     libucrt:exit.obj
 0003:000013f8       _environ_table             00000001800343f8     libucrt:environment_initialization.obj
 0003:00001400       _wenviron_table            0000000180034400     libucrt:environment_initialization.obj
 0003:00001408       __dcrt_initial_wide_environment 0000000180034408     libucrt:environment_initialization.obj
 0003:00001410       __dcrt_initial_narrow_environment 0000000180034410     libucrt:environment_initialization.obj
 0003:00001418       __acrt_atexit_table        0000000180034418     libucrt:onexit.obj
 0003:00001430       __acrt_at_quick_exit_table 0000000180034430     libucrt:onexit.obj
 0003:00001630       __pioinfo                  0000000180034630     libucrt:ioinit.obj
 0003:00001a30       _nhandle                   0000000180034a30     libucrt:ioinit.obj
 0003:00001a48       __acrt_stdout_buffer       0000000180034a48     libucrt:_sftbuf.obj
 0003:00001a50       __acrt_stderr_buffer       0000000180034a50     libucrt:_sftbuf.obj
 0003:00001a58       __acrt_locale_changed_data 0000000180034a58     libucrt:wsetlocale.obj
 0003:00001a60       __acrt_current_locale_data 0000000180034a60     libucrt:nlsdata.obj
 0003:00001cb0       _mbctype                   0000000180034cb0     libucrt:mbctype.obj
 0003:00001cb8       _mbcasemap                 0000000180034cb8     libucrt:mbctype.obj
 0003:00001cc0       __acrt_current_multibyte_data 0000000180034cc0     libucrt:mbctype.obj
 0003:00001cd0       _pgmptr                    0000000180034cd0     libucrt:argv_data.obj
 0003:00001cd8       __argc                     0000000180034cd8     libucrt:argv_data.obj
 0003:00001ce0       __argv                     0000000180034ce0     libucrt:argv_data.obj
 0003:00001ce8       __wargv                    0000000180034ce8     libucrt:argv_data.obj
 0003:00001cf0       _acmdln                    0000000180034cf0     libucrt:argv_data.obj
 0003:00001cf8       _wcmdln                    0000000180034cf8     libucrt:argv_data.obj
 0003:00001d00       __acrt_heap                0000000180034d00     libucrt:heap_handle.obj
 0003:00001d1c       __acrt_lconv_static_null   0000000180034d1c     libucrt:localeconv.obj
 0003:00001d20       __acrt_lconv_static_W_null 0000000180034d20     libucrt:localeconv.obj
 0003:00001d30       __fma3_is_available        0000000180034d30     libucrt:fma3_available.obj
 0003:00001d34       __use_fma3_lib             0000000180034d34     libucrt:fma3_available.obj
 0003:00001d38       ?DloadKernel32@@3PEAUHINSTANCE__@@EA 0000000180034d38     DelayImp:delayhlp.obj
 0003:00001d40       ?DloadAcquireSRWLockExclusive@@3P6AXPEA_K@ZEA 0000000180034d40     DelayImp:delayhlp.obj
 0003:00001d48       ?DloadReleaseSRWLockExclusive@@3P6AXPEA_K@ZEA 0000000180034d48     DelayImp:delayhlp.obj
 0003:00001d50       ?DloadSrwLock@@3_KA        0000000180034d50     DelayImp:delayhlp.obj
 0003:00001d58       ?DloadSectionLockCount@@3KA 0000000180034d58     DelayImp:delayhlp.obj
 0003:00001d5c       ?DloadSectionOldProtection@@3KA 0000000180034d5c     DelayImp:delayhlp.obj
 0003:00001d60       ?DloadSectionCommitPermanent@@3KA 0000000180034d60     DelayImp:delayhlp.obj
 0003:00001d68       ?context@@3PEAUsecp256k1_context_struct@@EA 0000000180034d68     addon.obj
 0003:00001d70       __scrt_ucrt_dll_is_in_use  0000000180034d70     <common>
 0003:00001d78       __dyn_tls_init_callback    0000000180034d78     <common>
 0003:00001d80       ?_OptionsStorage@?1??__local_stdio_printf_options@@9@9 0000000180034d80     <common>

 entry point at        0001:00011894

 Static symbols

 0000:fffc6000       .debug$S                   0000000180000000     secp256k1.exp
 0000:fffc6000       .debug$S                   0000000180000000     kernel32:KERNEL32.dll
 0000:fffc6000       .debug$S                   0000000180000000     kernel32:KERNEL32.dll
 0000:fffc6000       .debug$S                   0000000180000000     kernel32:KERNEL32.dll
 0000:fffc6000       .debug$S                   0000000180000000     kernel32:KERNEL32.dll
 0000:fffc6000       .debug$S                   0000000180000000     kernel32:KERNEL32.dll
 0000:fffc6000       .debug$S                   0000000180000000     kernel32:KERNEL32.dll
 0000:fffc6000       .debug$S                   0000000180000000     kernel32:KERNEL32.dll
 0000:fffc6000       .debug$S                   0000000180000000     kernel32:KERNEL32.dll
 0000:fffc6000       .debug$S                   0000000180000000     kernel32:KERNEL32.dll
 0000:fffc6000       .debug$S                   0000000180000000     kernel32:KERNEL32.dll
 0000:fffc6000       .debug$S                   0000000180000000     kernel32:KERNEL32.dll
 0000:fffc6000       .debug$S                   0000000180000000     kernel32:KERNEL32.dll
 0000:fffc6000       .debug$S                   0000000180000000     kernel32:KERNEL32.dll
 0000:fffc6000       .debug$S                   0000000180000000     kernel32:KERNEL32.dll
 0000:fffc6000       .debug$S                   0000000180000000     kernel32:KERNEL32.dll
 0000:fffc6000       .debug$S                   0000000180000000     kernel32:KERNEL32.dll
 0000:fffc6000       .debug$S                   0000000180000000     kernel32:KERNEL32.dll
 0000:fffc6000       .debug$S                   0000000180000000     kernel32:KERNEL32.dll
 0000:fffc6000       .debug$S                   0000000180000000     kernel32:KERNEL32.dll
 0000:fffc6000       .debug$S                   0000000180000000     kernel32:KERNEL32.dll
 0000:fffc6000       .debug$S                   0000000180000000     kernel32:KERNEL32.dll
 0000:fffc6000       .debug$S                   0000000180000000     kernel32:KERNEL32.dll
 0000:fffc6000       .debug$S                   0000000180000000     kernel32:KERNEL32.dll
 0000:fffc6000       .debug$S                   0000000180000000     kernel32:KERNEL32.dll
 0000:fffc6000       .debug$S                   0000000180000000     kernel32:KERNEL32.dll
 0000:fffc6000       .debug$S                   0000000180000000     kernel32:KERNEL32.dll
 0000:fffc6000       .debug$S                   0000000180000000     kernel32:KERNEL32.dll
 0000:fffc6000       .debug$S                   0000000180000000     kernel32:KERNEL32.dll
 0000:fffc6000       .debug$S                   0000000180000000     kernel32:KERNEL32.dll
 0000:fffc6000       .debug$S                   0000000180000000     kernel32:KERNEL32.dll
 0000:fffc6000       .debug$S                   0000000180000000     kernel32:KERNEL32.dll
 0000:fffc6000       .debug$S                   0000000180000000     kernel32:KERNEL32.dll
 0000:fffc6000       .debug$S                   0000000180000000     kernel32:KERNEL32.dll
 0000:fffc6000       .debug$S                   0000000180000000     kernel32:KERNEL32.dll
 0000:fffc6000       .debug$S                   0000000180000000     kernel32:KERNEL32.dll
 0000:fffc6000       .debug$S                   0000000180000000     kernel32:KERNEL32.dll
 0000:fffc6000       .debug$S                   0000000180000000     kernel32:KERNEL32.dll
 0000:fffc6000       .debug$S                   0000000180000000     kernel32:KERNEL32.dll
 0000:fffc6000       .debug$S                   0000000180000000     kernel32:KERNEL32.dll
 0000:fffc6000       .debug$S                   0000000180000000     kernel32:KERNEL32.dll
 0000:fffc6000       .debug$S                   0000000180000000     kernel32:KERNEL32.dll
 0000:fffc6000       .debug$S                   0000000180000000     kernel32:KERNEL32.dll
 0000:fffc6000       .debug$S                   0000000180000000     kernel32:KERNEL32.dll
 0000:fffc6000       .debug$S                   0000000180000000     kernel32:KERNEL32.dll
 0000:fffc6000       .debug$S                   0000000180000000     kernel32:KERNEL32.dll
 0000:fffc6000       .debug$S                   0000000180000000     kernel32:KERNEL32.dll
 0000:fffc6000       .debug$S                   0000000180000000     kernel32:KERNEL32.dll
 0000:fffc6000       .debug$S                   0000000180000000     kernel32:KERNEL32.dll
 0000:fffc6000       .debug$S                   0000000180000000     kernel32:KERNEL32.dll
 0000:fffc6000       .debug$S                   0000000180000000     kernel32:KERNEL32.dll
 0000:fffc6000       .debug$S                   0000000180000000     kernel32:KERNEL32.dll
 0000:fffc6000       .debug$S                   0000000180000000     kernel32:KERNEL32.dll
 0000:fffc6000       .debug$S                   0000000180000000     kernel32:KERNEL32.dll
 0000:fffc6000       .debug$S                   0000000180000000     kernel32:KERNEL32.dll
 0000:fffc6000       .debug$S                   0000000180000000     kernel32:KERNEL32.dll
 0000:fffc6000       .debug$S                   0000000180000000     kernel32:KERNEL32.dll
 0000:fffc6000       .debug$S                   0000000180000000     kernel32:KERNEL32.dll
 0000:fffc6000       .debug$S                   0000000180000000     kernel32:KERNEL32.dll
 0000:fffc6000       .debug$S                   0000000180000000     kernel32:KERNEL32.dll
 0000:fffc6000       .debug$S                   0000000180000000     kernel32:KERNEL32.dll
 0000:fffc6000       .debug$S                   0000000180000000     kernel32:KERNEL32.dll
 0000:fffc6000       .debug$S                   0000000180000000     kernel32:KERNEL32.dll
 0000:fffc6000       .debug$S                   0000000180000000     kernel32:KERNEL32.dll
 0000:fffc6000       .debug$S                   0000000180000000     kernel32:KERNEL32.dll
 0000:fffc6000       .debug$S                   0000000180000000     kernel32:KERNEL32.dll
 0000:fffc6000       .debug$S                   0000000180000000     kernel32:KERNEL32.dll
 0000:fffc6000       .debug$S                   0000000180000000     kernel32:KERNEL32.dll
 0000:fffc6000       .debug$S                   0000000180000000     kernel32:KERNEL32.dll
 0000:fffc6000       .debug$S                   0000000180000000     kernel32:KERNEL32.dll
 0000:fffc6000       .debug$S                   0000000180000000     kernel32:KERNEL32.dll
 0000:fffc6000       .debug$S                   0000000180000000     kernel32:KERNEL32.dll
 0000:fffc6000       .debug$S                   0000000180000000     kernel32:KERNEL32.dll
 0000:fffc6000       .debug$S                   0000000180000000     kernel32:KERNEL32.dll
 0000:fffc6000       .debug$S                   0000000180000000     kernel32:KERNEL32.dll
 0000:fffc6000       .debug$S                   0000000180000000     kernel32:KERNEL32.dll
 0000:fffc6000       .debug$S                   0000000180000000     kernel32:KERNEL32.dll
 0000:fffc6000       .debug$S                   0000000180000000     kernel32:KERNEL32.dll
 0000:fffc6000       .debug$S                   0000000180000000     kernel32:KERNEL32.dll
 0000:fffc6000       .debug$S                   0000000180000000     kernel32:KERNEL32.dll
 0000:fffc6000       .debug$S                   0000000180000000     kernel32:KERNEL32.dll
 0000:fffc6000       .debug$S                   0000000180000000     kernel32:KERNEL32.dll
 0000:fffc6000       .debug$S                   0000000180000000     kernel32:KERNEL32.dll
 0000:fffc6000       .debug$S                   0000000180000000     kernel32:KERNEL32.dll
 0000:fffc6000       .debug$S                   0000000180000000     kernel32:KERNEL32.dll
 0000:fffc6000       .debug$S                   0000000180000000     kernel32:KERNEL32.dll
 0000:fffc6000       .debug$S                   0000000180000000     kernel32:KERNEL32.dll
 0000:fffc6000       .debug$S                   0000000180000000     kernel32:KERNEL32.dll
 0000:fffc6000       .debug$S                   0000000180000000     kernel32:KERNEL32.dll
 0000:fffc6000       .debug$S                   0000000180000000     kernel32:KERNEL32.dll
 0000:fffc6000       .debug$S                   0000000180000000     node:node.exe
 0000:fffc6000       .debug$S                   0000000180000000     node:node.exe
 0000:fffc6000       .debug$S                   0000000180000000     node:node.exe
 0000:fffc6000       .debug$S                   0000000180000000     node:node.exe
 0000:fffc6000       .debug$S                   0000000180000000     node:node.exe
 0000:fffc6000       .debug$S                   0000000180000000     node:node.exe
 0000:fffc6000       .debug$S                   0000000180000000     node:node.exe
 0000:fffc6000       .debug$S                   0000000180000000     node:node.exe
 0000:fffc6000       .debug$S                   0000000180000000     node:node.exe
 0000:fffc6000       .debug$S                   0000000180000000     node:node.exe
 0000:fffc6000       .debug$S                   0000000180000000     node:node.exe
 0000:fffc6000       .debug$S                   0000000180000000     node:node.exe
 0000:fffc6000       .debug$S                   0000000180000000     node:node.exe
 0000:fffc6000       .debug$S                   0000000180000000     node:node.exe
 0000:fffc6000       .debug$S                   0000000180000000     node:node.exe
 0000:fffc6000       .debug$S                   0000000180000000     node:node.exe
 0000:fffc6000       .debug$S                   0000000180000000     node:node.exe
 0000:fffc6000       .debug$S                   0000000180000000     node:node.exe
 0000:fffc6000       .debug$S                   0000000180000000     node:node.exe
 0000:fffc6000       .debug$S                   0000000180000000     node:node.exe
 0000:fffc6000       .debug$S                   0000000180000000     node:node.exe
 0000:fffc6000       .debug$S                   0000000180000000     node:node.exe
 0000:fffc6000       .debug$S                   0000000180000000     node:node.exe
 0000:fffc6000       .debug$S                   0000000180000000     node:node.exe
 0000:fffc6000       .debug$S                   0000000180000000     node:node.exe
 0000:fffc6000       .debug$S                   0000000180000000     node:node.exe
 0000:fffc6000       .debug$S                   0000000180000000     node:node.exe
 0000:fffc6000       .debug$S                   0000000180000000     node:node.exe
 0000:fffc6000       .debug$S                   0000000180000000     node:node.exe
 0000:fffc6000       .debug$S                   0000000180000000     node:node.exe
 0000:fffc6000       .debug$S                   0000000180000000     node:node.exe
 0000:fffc6000       .debug$S                   0000000180000000     node:node.exe
 0000:fffc6000       .debug$S                   0000000180000000     node:node.exe
 0000:fffc6000       .debug$S                   0000000180000000     node:node.exe
 0001:00000000       ?FunctionCallbackWrapper@imp@Nan@@YAXAEBV?$FunctionCallbackInfo@VValue@v8@@@v8@@@Z 0000000180001000 f   addon.obj
 0001:00001d70       _register_secp256k1        0000000180002d70 f   addon.obj
 0001:00001d80       ??$isPoint@V?$Local@VObject@v8@@@v8@@@?A0xa5113622@@YA_NAEBV?$Local@VObject@v8@@@v8@@AEAUsecp256k1_pubkey@@@Z 0000000180002d80 f   addon.obj
 0001:00001f70       ??$assumeCompression@$01V?$FunctionCallbackInfo@VValue@v8@@@Nan@@V?$Local@VObject@v8@@@v8@@@?A0xa5113622@@YAIAEBV?$FunctionCallbackInfo@VValue@v8@@@Nan@@AEBV?$Local@VObject@v8@@@v8@@@Z 0000000180002f70 f   addon.obj
 0001:00002090       secp256k1_fe_normalize     0000000180003090 f   secp256k1.obj
 0001:000022a0       secp256k1_fe_normalize_weak 00000001800032a0 f   secp256k1.obj
 0001:000023a0       secp256k1_fe_normalize_var 00000001800033a0 f   secp256k1.obj
 0001:000025a0       secp256k1_fe_normalizes_to_zero 00000001800035a0 f   secp256k1.obj
 0001:000026e0       secp256k1_fe_normalizes_to_zero_var 00000001800036e0 f   secp256k1.obj
 0001:00002860       secp256k1_fe_set_b32       0000000180003860 f   secp256k1.obj
 0001:00002a80       secp256k1_fe_get_b32       0000000180003a80 f   secp256k1.obj
 0001:00002c00       secp256k1_fe_mul_inner     0000000180003c00 f   secp256k1.obj
 0001:00003430       secp256k1_fe_sqr_inner     0000000180004430 f   secp256k1.obj
 0001:000039b0       secp256k1_fe_sqrt          00000001800049b0 f   secp256k1.obj
 0001:00003e90       secp256k1_fe_inv           0000000180004e90 f   secp256k1.obj
 0001:000042f0       secp256k1_scalar_add       00000001800052f0 f   secp256k1.obj
 0001:00004550       secp256k1_scalar_set_b32   0000000180005550 f   secp256k1.obj
 0001:00004800       secp256k1_scalar_reduce_512 0000000180005800 f   secp256k1.obj
 0001:00005370       secp256k1_scalar_mul_512   0000000180006370 f   secp256k1.obj
 0001:00005cc0       secp256k1_scalar_sqr_512   0000000180006cc0 f   secp256k1.obj
 0001:000065e0       secp256k1_scalar_inverse   00000001800075e0 f   secp256k1.obj
 0001:00007270       secp256k1_ge_set_gej       0000000180008270 f   secp256k1.obj
 0001:00007360       secp256k1_ge_set_all_gej_var 0000000180008360 f   secp256k1.obj
 0001:00007650       secp256k1_ge_set_xo_var    0000000180008650 f   secp256k1.obj
 0001:000077a0       secp256k1_gej_eq_x_var     00000001800087a0 f   secp256k1.obj
 0001:000079a0       secp256k1_gej_neg          00000001800089a0 f   secp256k1.obj
 0001:00007a70       secp256k1_ge_is_valid_var  0000000180008a70 f   secp256k1.obj
 0001:00007c40       secp256k1_gej_double_var   0000000180008c40 f   secp256k1.obj
 0001:00008180       secp256k1_gej_add_var      0000000180009180 f   secp256k1.obj
 0001:000087a0       secp256k1_gej_add_ge_var   00000001800097a0 f   secp256k1.obj
 0001:00009060       secp256k1_gej_add_zinv_var 000000018000a060 f   secp256k1.obj
 0001:000098e0       secp256k1_gej_add_ge       000000018000a8e0 f   secp256k1.obj
 0001:0000a800       secp256k1_ge_to_storage    000000018000b800 f   secp256k1.obj
 0001:0000a980       secp256k1_ge_from_storage  000000018000b980 f   secp256k1.obj
 0001:0000ab10       secp256k1_ge_storage_cmov  000000018000bb10 f   secp256k1.obj
 0001:0000ac50       secp256k1_ecmult_odd_multiples_table 000000018000bc50 f   secp256k1.obj
 0001:0000ae10       secp256k1_ecmult_odd_multiples_table_storage_var 000000018000be10 f   secp256k1.obj
 0001:0000b020       secp256k1_ecmult_wnaf      000000018000c020 f   secp256k1.obj
 0001:0000b2c0       secp256k1_ecmult           000000018000c2c0 f   secp256k1.obj
 0001:0000b780       secp256k1_sha256_transform 000000018000c780 f   secp256k1.obj
 0001:0000dd90       secp256k1_sha256_write     000000018000ed90 f   secp256k1.obj
 0001:0000de40       secp256k1_sha256_finalize  000000018000ee40 f   secp256k1.obj
 0001:0000e1a0       secp256k1_hmac_sha256_initialize 000000018000f1a0 f   secp256k1.obj
 0001:0000e400       secp256k1_hmac_sha256_finalize 000000018000f400 f   secp256k1.obj
 0001:0000e4f0       secp256k1_rfc6979_hmac_sha256_initialize 000000018000f4f0 f   secp256k1.obj
 0001:0000e670       secp256k1_rfc6979_hmac_sha256_generate 000000018000f670 f   secp256k1.obj
 0001:0000e7a0       secp256k1_ecmult_gen_context_build 000000018000f7a0 f   secp256k1.obj
 0001:0000ec60       secp256k1_ecmult_gen       000000018000fc60 f   secp256k1.obj
 0001:0000edc0       secp256k1_ecmult_gen_blind 000000018000fdc0 f   secp256k1.obj
 0001:0000f1c0       secp256k1_ecdsa_sig_verify 00000001800101c0 f   secp256k1.obj
 0001:0000f540       secp256k1_ecdsa_sig_sign   0000000180010540 f   secp256k1.obj
 0001:0000f8c0       default_illegal_callback_fn 00000001800108c0 f   secp256k1.obj
 0001:0000f8f0       default_error_callback_fn  00000001800108f0 f   secp256k1.obj
 0001:00010410       nonce_function_rfc6979     0000000180011410 f   secp256k1.obj
 0001:00011340       ?load_exe_hook@@YAP6A_JXZIPEAUDelayLoadInfo@@@Z 0000000180012340 f   win_delay_load_hook.obj
 0001:00011540       $$000000                   0000000180012540     LIBCMT:amdsecgs.obj
 0001:00011574       ?dllmain_crt_dispatch@@YAHQEAUHINSTANCE__@@KQEAX@Z 0000000180012574 f   LIBCMT:dll_dllmain.obj
 0001:000115c4       ?dllmain_crt_process_attach@@YAHQEAUHINSTANCE__@@QEAX@Z 00000001800125c4 f   LIBCMT:dll_dllmain.obj
 0001:000116dc       ?dllmain_crt_process_detach@@YAH_N@Z 00000001800126dc f   LIBCMT:dll_dllmain.obj
 0001:00011760       ?dllmain_dispatch@@YAHQEAUHINSTANCE__@@KQEAX@Z 0000000180012760 f   LIBCMT:dll_dllmain.obj
 0001:00011a8c       capture_current_context    0000000180012a8c f   LIBCMT:gs_report.obj
 0001:00011afc       capture_previous_context   0000000180012afc f   LIBCMT:gs_report.obj
 0001:00012640       $$000000                   0000000180013640     libvcruntime:memset.obj
 0001:00012800       $$000000                   0000000180013800     libvcruntime:notify.obj
 0001:00012aa0       $$000000                   0000000180013aa0     libvcruntime:memcpy.obj
 0001:00012ea8       ?try_get_function@@YAPEAXW4function_id@?A0x87d18907@@QEBDQEBW4module_id@2@2@Z 0000000180013ea8 f   libvcruntime:winapi_downlevel.obj
 0001:000131a0       $$000000                   00000001800141a0     libvcruntime:handlers.obj
 0001:000132a8       ??$common_assert_to_message_box@_W@@YAXQEB_W0IQEAX@Z 00000001800142a8 f   libucrt:assert.obj
 0001:0001336c       ??$common_assert_to_message_box_build_string@_W@@YAXQEA_W_KQEB_W2IQEAX@Z 000000018001436c f   libucrt:assert.obj
 0001:00013870       ??$common_assert_to_stderr@_W@@YAXQEB_W0I@Z 0000000180014870 f   libucrt:assert.obj
 0001:000139e0       ?get_assert_format@@YAPEB_W_W@Z 00000001800149e0 f   libucrt:assert.obj
 0001:00013cf4       ??$?RV<lambda_676bd5779251ec186b530f0a904b4b35>@@AEAV<lambda_b579ea784fd840951dfbcbdaebf709fd>@@V<lambda_10027885da78ada7fb00668d7e2e96b5>@@@?$__crt_seh_guarded_call@H@@QEAAH$$QEAV<lambda_676bd5779251ec186b530f0a904b4b35>@@AEAV<lambda_b579ea784fd840951dfbcbdaebf709fd>@@$$QEAV<lambda_10027885da78ada7fb00668d7e2e96b5>@@@Z 0000000180014cf4 f   libucrt:output.obj
 0001:00013d34       ??$?RV<lambda_fe5404e9642edbb7c8ae71e1dcfa4018>@@AEAV<lambda_36eeb330e99a4f0bf8a7da86d0894cb9>@@V<lambda_2fa474834de80dc12f7a3c6eddd7a366>@@@?$__crt_seh_guarded_call@H@@QEAAH$$QEAV<lambda_fe5404e9642edbb7c8ae71e1dcfa4018>@@AEAV<lambda_36eeb330e99a4f0bf8a7da86d0894cb9>@@$$QEAV<lambda_2fa474834de80dc12f7a3c6eddd7a366>@@@Z 0000000180014d34 f   libucrt:output.obj
 0001:00013d74       ??$common_vsprintf@Vstandard_base@__crt_stdio_output@@_W@@YAH_KQEA_W0QEB_WQEAU__crt_locale_pointers@@QEAD@Z 0000000180014d74 f   libucrt:output.obj
 0001:00014574       ??R<lambda_36eeb330e99a4f0bf8a7da86d0894cb9>@@QEBAHXZ 0000000180015574 f   libucrt:output.obj
 0001:000146a4       ??R<lambda_b579ea784fd840951dfbcbdaebf709fd>@@QEBAHXZ 00000001800156a4 f   libucrt:output.obj
 0001:000175c8       ??$?RV<lambda_d80eeec6fff315bfe5c115232f3240e3>@@AEAV<lambda_6e4b09c48022b2350581041d5f6b0c4c>@@V<lambda_2358e3775559c9db80273638284d5e45>@@@?$__crt_seh_guarded_call@X@@QEAAX$$QEAV<lambda_d80eeec6fff315bfe5c115232f3240e3>@@AEAV<lambda_6e4b09c48022b2350581041d5f6b0c4c>@@$$QEAV<lambda_2358e3775559c9db80273638284d5e45>@@@Z 00000001800185c8 f   libucrt:exit.obj
 0001:00017600       ??R<lambda_6e4b09c48022b2350581041d5f6b0c4c>@@QEBA@XZ 0000000180018600 f   libucrt:exit.obj
 0001:000176c4       ?atexit_exception_filter@@YAHK@Z 00000001800186c4 f   libucrt:exit.obj
 0001:000176d0       ?common_exit@@YAXHW4_crt_exit_cleanup_mode@@W4_crt_exit_return_mode@@@Z 00000001800186d0 f   libucrt:exit.obj
 0001:0001778c       ?exit_or_terminate_process@@YAXI@Z 000000018001878c f   libucrt:exit.obj
 0001:000177d8       ?try_cor_exit_process@@YAXI@Z 00000001800187d8 f   libucrt:exit.obj
 0001:00017860       ??$parse_command_line@D@@YAXPEADPEAPEAD0PEA_K2@Z 0000000180018860 f   libucrt:argv_parsing.obj
 0001:00017c0c       ??$common_initialize_environment_nolock@D@@YAHXZ 0000000180018c0c f   libucrt:environment_initialization.obj
 0001:00017c78       ??$create_environment@D@@YAQEAPEADQEAD@Z 0000000180018c78 f   libucrt:environment_initialization.obj
 0001:00017d80       ??$free_environment@D@@YAXQEAPEAD@Z 0000000180018d80 f   libucrt:environment_initialization.obj
 0001:00017d80       ??$free_environment@_W@@YAXQEAPEA_W@Z 0000000180018d80 f   libucrt:environment_initialization.obj
 0001:00017dc4       ??$uninitialize_environment_internal@D@@YAXAEAPEAPEAD@Z 0000000180018dc4 f   libucrt:environment_initialization.obj
 0001:00017de0       ??$uninitialize_environment_internal@_W@@YAXAEAPEAPEA_W@Z 0000000180018de0 f   libucrt:environment_initialization.obj
 0001:00017e3c       ??$?RV<lambda_7777bce6b2f8c936911f934f8298dc43>@@AEAV<lambda_f03950bc5685219e0bcd2087efbe011e>@@V<lambda_3883c3dff614d5e0c5f61bb1ac94921c>@@@?$__crt_seh_guarded_call@H@@QEAAH$$QEAV<lambda_7777bce6b2f8c936911f934f8298dc43>@@AEAV<lambda_f03950bc5685219e0bcd2087efbe011e>@@$$QEAV<lambda_3883c3dff614d5e0c5f61bb1ac94921c>@@@Z 0000000180018e3c f   libucrt:onexit.obj
 0001:00017e78       ??R<lambda_f03950bc5685219e0bcd2087efbe011e>@@QEBAHXZ 0000000180018e78 f   libucrt:onexit.obj
 0001:00017ff4       initialize_global_variables 0000000180018ff4 f   libucrt:initialization.obj
 0001:00018008       initialize_c               0000000180019008 f   libucrt:initialization.obj
 0001:0001802c       initialize_environment     000000018001902c f   libucrt:initialization.obj
 0001:0001802c       initialize_global_state_isolation 000000018001902c f   libucrt:initialization.obj
 0001:0001802c       report_memory_leaks        000000018001902c f   libucrt:initialization.obj
 0001:0001802c       uninitialize_c             000000018001902c f   libucrt:initialization.obj
 0001:0001802c       uninitialize_global_state_isolation 000000018001902c f   libucrt:initialization.obj
 0001:00018030       uninitialize_environment   0000000180019030 f   libucrt:initialization.obj
 0001:00018040       initialize_pointers        0000000180019040 f   libucrt:initialization.obj
 0001:00018080       uninitialize_vcruntime     0000000180019080 f   libucrt:initialization.obj
 0001:00018088       uninitialize_allocated_memory 0000000180019088 f   libucrt:initialization.obj
 0001:000180c8       uninitialize_allocated_io_buffers 00000001800190c8 f   libucrt:initialization.obj
 0001:00018c50       $$000000                   0000000180019c50     libucrt:strncmp.obj
 0001:00019070       ??$common_xtox@K_W@@YAHKQEA_W_KI_N@Z 000000018001a070 f   libucrt:xtoa.obj
 0001:00019144       ??$common_xtox_s@K_W@@YAHKQEA_W_KI_N@Z 000000018001a144 f   libucrt:xtoa.obj
 0001:000196d0       ??$?RV<lambda_842d9ff0dc9ef11c61343bbaebe7f885>@@AEAV<lambda_c5860995281e5c4ce005b3de8f5874ee>@@V<lambda_d90129c13df834fdcbf8d2b88dafcf2d>@@@?$__crt_seh_guarded_call@X@@QEAAX$$QEAV<lambda_842d9ff0dc9ef11c61343bbaebe7f885>@@AEAV<lambda_c5860995281e5c4ce005b3de8f5874ee>@@$$QEAV<lambda_d90129c13df834fdcbf8d2b88dafcf2d>@@@Z 000000018001a6d0 f   libucrt:fflush.obj
 0001:0001976c       ??$?RV<lambda_886d6c58226a84441f68b9f2b8217b83>@@AEAV<lambda_ab61a845afdef5b7c387490eaf3616ee>@@V<lambda_f7f22ab5edc0698d5f6905b0d3f44752>@@@?$__crt_seh_guarded_call@X@@QEAAX$$QEAV<lambda_886d6c58226a84441f68b9f2b8217b83>@@AEAV<lambda_ab61a845afdef5b7c387490eaf3616ee>@@$$QEAV<lambda_f7f22ab5edc0698d5f6905b0d3f44752>@@@Z 000000018001a76c f   libucrt:fflush.obj
 0001:0001984c       ??$?RV<lambda_c376a267cfb53b6959b3b692ec76b120>@@AEAV<lambda_9a32fed5bf61b6b509b2d3f6003082a1>@@V<lambda_572fbb9fa0ab338edf41edfd4b5fcc8d>@@@?$__crt_seh_guarded_call@H@@QEAAH$$QEAV<lambda_c376a267cfb53b6959b3b692ec76b120>@@AEAV<lambda_9a32fed5bf61b6b509b2d3f6003082a1>@@$$QEAV<lambda_572fbb9fa0ab338edf41edfd4b5fcc8d>@@@Z 000000018001a84c f   libucrt:fflush.obj
 0001:0001988c       ?common_flush_all@@YAH_N@Z 000000018001a88c f   libucrt:fflush.obj
 0001:00019a24       ??$?RV<lambda_84ec643ea9557e2f7dc01bb0e9624395>@@AEAV<lambda_ca71763b3c0644891230e4f79ea54fa6>@@V<lambda_439a761618c59b0600e24586724d733b>@@@?$__crt_seh_guarded_call@H@@QEAAH$$QEAV<lambda_84ec643ea9557e2f7dc01bb0e9624395>@@AEAV<lambda_ca71763b3c0644891230e4f79ea54fa6>@@$$QEAV<lambda_439a761618c59b0600e24586724d733b>@@@Z 000000018001aa24 f   libucrt:setvbuf.obj
 0001:00019a64       ??R<lambda_ca71763b3c0644891230e4f79ea54fa6>@@QEBAHXZ 000000018001aa64 f   libucrt:setvbuf.obj
 0001:00019be0       ??$?RV<lambda_450d765d439847d4c735a33c368b5fc0>@@AEAV<lambda_44731a7d0e6d81c3e6aa82d741081786>@@V<lambda_601a2a7da3b7a96e9554ac7215c4b07c>@@@?$__crt_seh_guarded_call@P6AXH@Z@@QEAAP6AXH@Z$$QEAV<lambda_450d765d439847d4c735a33c368b5fc0>@@AEAV<lambda_44731a7d0e6d81c3e6aa82d741081786>@@$$QEAV<lambda_601a2a7da3b7a96e9554ac7215c4b07c>@@@Z 000000018001abe0 f   libucrt:signal.obj
 0001:00019f9c       ?try_get_function@@YAPEAXW4function_id@?A0x391cf84c@@QEBDQEBW4module_id@2@2@Z 000000018001af9c f   libucrt:winapi_thunks.obj
 0001:0001a8ec       ?initialize_inherited_file_handles_nolock@@YAXXZ 000000018001b8ec f   libucrt:ioinit.obj
 0001:0001a9dc       ?initialize_stdio_handles_nolock@@YAXXZ 000000018001b9dc f   libucrt:ioinit.obj
 0001:0001b27c       ??$?RV<lambda_0ae27a3a962d80f24befdcbee591983d>@@AEAV<lambda_8d0ee55de4b1038c4002e0adecdf1839>@@V<lambda_dc504788e8f1664fe9b84e20bfb512f2>@@@?$__crt_seh_guarded_call@X@@QEAAX$$QEAV<lambda_0ae27a3a962d80f24befdcbee591983d>@@AEAV<lambda_8d0ee55de4b1038c4002e0adecdf1839>@@$$QEAV<lambda_dc504788e8f1664fe9b84e20bfb512f2>@@@Z 000000018001c27c f   libucrt:per_thread_data.obj
 0001:0001b2bc       ??$?RV<lambda_2d41944a1d46af3157314b8a01080d33>@@AEAV<lambda_8f455de75cd7d7f24b4096f044d8b9e6>@@V<lambda_aa500f224e6afead328df44964fe2772>@@@?$__crt_seh_guarded_call@X@@QEAAX$$QEAV<lambda_2d41944a1d46af3157314b8a01080d33>@@AEAV<lambda_8f455de75cd7d7f24b4096f044d8b9e6>@@$$QEAV<lambda_aa500f224e6afead328df44964fe2772>@@@Z 000000018001c2bc f   libucrt:per_thread_data.obj
 0001:0001b2fc       ??$?RV<lambda_aa87e3671a710a21b5dc78c0bdf72e11>@@AEAV<lambda_92619d2358a28f41a33ba319515a20b9>@@V<lambda_6992ecaafeb10aed2b74cb1fae11a551>@@@?$__crt_seh_guarded_call@X@@QEAAX$$QEAV<lambda_aa87e3671a710a21b5dc78c0bdf72e11>@@AEAV<lambda_92619d2358a28f41a33ba319515a20b9>@@$$QEAV<lambda_6992ecaafeb10aed2b74cb1fae11a551>@@@Z 000000018001c2fc f   libucrt:per_thread_data.obj
 0001:0001b344       ??$?RV<lambda_f2e299630e499de9f9a165e60fcd3db5>@@AEAV<lambda_2ae9d31cdba2644fcbeaf08da7c24588>@@V<lambda_40d01ff24d0e7b3814fdbdcee8eab3c7>@@@?$__crt_seh_guarded_call@X@@QEAAX$$QEAV<lambda_f2e299630e499de9f9a165e60fcd3db5>@@AEAV<lambda_2ae9d31cdba2644fcbeaf08da7c24588>@@$$QEAV<lambda_40d01ff24d0e7b3814fdbdcee8eab3c7>@@@Z 000000018001c344 f   libucrt:per_thread_data.obj
 0001:0001b3a4       ?construct_ptd_array@@YAXQEAU__acrt_ptd@@@Z 000000018001c3a4 f   libucrt:per_thread_data.obj
 0001:0001b474       ?destroy_fls@@YAXPEAX@Z    000000018001c474 f   libucrt:per_thread_data.obj
 0001:0001b494       ?destroy_ptd_array@@YAXQEAU__acrt_ptd@@@Z 000000018001c494 f   libucrt:per_thread_data.obj
 0001:0001b58c       ?replace_current_thread_locale_nolock@@YAXQEAU__acrt_ptd@@QEAU__crt_locale_data@@@Z 000000018001c58c f   libucrt:per_thread_data.obj
 0001:0001b948       ?fp_format_a@@YAHQEBNPEAD_KQEAD2H_NIQEAU__crt_locale_pointers@@@Z 000000018001c948 f   libucrt:cvt.obj
 0001:0001bcb8       ?fp_format_e@@YAHQEBNQEAD_K12H_NIQEAU__crt_locale_pointers@@@Z 000000018001ccb8 f   libucrt:cvt.obj
 0001:0001bd94       ?fp_format_e_internal@@YAHQEAD_KH_NIQEAU_strflt@@2QEAU__crt_locale_pointers@@@Z 000000018001cd94 f   libucrt:cvt.obj
 0001:0001bf68       ?fp_format_f_internal@@YAHQEAD_KHQEAU_strflt@@_NQEAU__crt_locale_pointers@@@Z 000000018001cf68 f   libucrt:cvt.obj
 0001:0001c0ac       ?fp_format_g@@YAHQEBNQEAD_K12H_NIQEAU__crt_locale_pointers@@@Z 000000018001d0ac f   libucrt:cvt.obj
 0001:0001c7c4       ??$?RV<lambda_410d79af7f07d98d83a3f525b3859a53>@@AEAV<lambda_3e16ef9562a7dcce91392c22ab16ea36>@@V<lambda_38119f0e861e05405d8a144b9b982f0a>@@@?$__crt_seh_guarded_call@X@@QEAAX$$QEAV<lambda_410d79af7f07d98d83a3f525b3859a53>@@AEAV<lambda_3e16ef9562a7dcce91392c22ab16ea36>@@$$QEAV<lambda_38119f0e861e05405d8a144b9b982f0a>@@@Z 000000018001d7c4 f   libucrt:wsetlocale.obj
 0001:0001ca24       ?<lambda_invoker_cdecl>@<lambda_a1ce4c8ae42411fd470c77163914f50e>@@CAHPEBX0@Z 000000018001da24 f   libucrt:argv_wildcards.obj
 0001:0001cd3c       ??$common_expand_argv_wildcards@D@@YAHQEAPEADQEAPEAPEAD@Z 000000018001dd3c f   libucrt:argv_wildcards.obj
 0001:0001cf48       ??$copy_and_add_argument_to_buffer@D@@YAHQEBD0_KAEAV?$argument_list@D@?A0x5f5c8891@@@Z 000000018001df48 f   libucrt:argv_wildcards.obj
 0001:0001d0d0       ??$expand_argument_wildcards@D@@YAHQEAD0AEAV?$argument_list@D@?A0x5f5c8891@@@Z 000000018001e0d0 f   libucrt:argv_wildcards.obj
 0001:0001d3e8       ??$?RV<lambda_efdfa57d1f175319df784efa44bb7b81>@@AEAV<lambda_5f0a4c1567f8adc6734073e5d1e1b35c>@@V<lambda_2e8a7d3640ea6ccb4c2413664c2db6fd>@@@?$__crt_seh_guarded_call@X@@QEAAX$$QEAV<lambda_efdfa57d1f175319df784efa44bb7b81>@@AEAV<lambda_5f0a4c1567f8adc6734073e5d1e1b35c>@@$$QEAV<lambda_2e8a7d3640ea6ccb4c2413664c2db6fd>@@@Z 000000018001e3e8 f   libucrt:mbctype.obj
 0001:0001d5a4       ?getSystemCP@@YAHH@Z       000000018001e5a4 f   libucrt:mbctype.obj
 0001:0001d624       ?setSBCS@@YAXPEAU__crt_multibyte_data@@@Z 000000018001e624 f   libucrt:mbctype.obj
 0001:0001d6b4       ?setSBUpLow@@YAXPEAU__crt_multibyte_data@@@Z 000000018001e6b4 f   libucrt:mbctype.obj
 0001:0001d898       ?setmbcp_internal@@YAHH_NQEAU__acrt_ptd@@QEAPEAU__crt_multibyte_data@@@Z 000000018001e898 f   libucrt:mbctype.obj
 0001:0001da5c       ?update_thread_multibyte_data_internal@@YAPEAU__crt_multibyte_data@@QEAU__acrt_ptd@@QEAPEAU1@@Z 000000018001ea5c f   libucrt:mbctype.obj
 0001:0001de4c       ?x_ismbbtype_l@@YAHPEAU__crt_locale_pointers@@IHH@Z 000000018001ee4c f   libucrt:ismbbyte.obj
 0001:0001e4e0       ??$?RV<lambda_a37b2b86f63e897a80ea819b0eb08c01>@@AEAV<lambda_38ce7e780aa69e748d6df282ebc68efe>@@V<lambda_99fb1378e971ab6e7edea83e3a7a83a2>@@@?$__crt_seh_guarded_call@H@@QEAAH$$QEAV<lambda_a37b2b86f63e897a80ea819b0eb08c01>@@AEAV<lambda_38ce7e780aa69e748d6df282ebc68efe>@@$$QEAV<lambda_99fb1378e971ab6e7edea83e3a7a83a2>@@@Z 000000018001f4e0 f   libucrt:commit.obj
 0001:0001e600       ?write_double_translated_ansi_nolock@@YA?AUwrite_result@?A0x17268360@@HQEBDI@Z 000000018001f600 f   libucrt:write.obj
 0001:0001ead0       ?write_text_ansi_nolock@@YA?AUwrite_result@?A0x17268360@@HQEBDI@Z 000000018001fad0 f   libucrt:write.obj
 0001:0001ebd4       ?write_text_utf16le_nolock@@YA?AUwrite_result@?A0x17268360@@HQEBDI@Z 000000018001fbd4 f   libucrt:write.obj
 0001:0001ecf0       ?write_text_utf8_nolock@@YA?AUwrite_result@?A0x17268360@@HQEBDI@Z 000000018001fcf0 f   libucrt:write.obj
 0001:000214f0       memcpy_s                   00000001800224f0 f   libucrt:cfout.obj
 0001:00021578       ??$write_buffer_nolock@D@@YA_NDV__crt_stdio_stream@@@Z 0000000180022578 f   libucrt:_flsbuf.obj
 0001:0002165c       ??$write_buffer_nolock@_W@@YA_N_WV__crt_stdio_stream@@@Z 000000018002265c f   libucrt:_flsbuf.obj
 0001:00021744       ?stream_is_at_end_of_file_nolock@@YA_NV__crt_stdio_stream@@@Z 0000000180022744 f   libucrt:_flsbuf.obj
 0001:00021b70       ?free_crt_array_internal@@YAXQEAPEBX_K@Z 0000000180022b70 f   libucrt:inittime.obj
 0001:000222e4       fallbackMethod             00000001800232e4 f   libucrt:strpbrk.obj
 0001:000226b4       $LN78                      00000001800236b4     libucrt:strpbrk.obj
 0001:000226f0       $LN77                      00000001800236f0     libucrt:strpbrk.obj
 0001:00022730       $LN76                      0000000180023730     libucrt:strpbrk.obj
 0001:0002280c       ?__acrt_LCMapStringA_stat@@YAHPEAU__crt_locale_pointers@@PEB_WKPEBDHPEADHHH@Z 000000018002380c f   libucrt:lcmapstringa.obj
 0001:00022bbc       ?initialize_multibyte@@YAHXZ 0000000180023bbc f   libucrt:multibyte_initializer.obj
 0001:00022c94       ??$common_lseek@_J@@YA_JH_JH@Z 0000000180023c94 f   libucrt:lseek.obj
 0001:00022d84       ??$common_lseek_nolock@_J@@YA_JH_JH@Z 0000000180023d84 f   libucrt:lseek.obj
 0001:00022eb8       ??$?RV<lambda_751a882b2c74d4b022dec766aa51a29a>@@AEAV<lambda_628dfdc04ba53c8bfc02c9951375f3f5>@@V<lambda_f6c7be5f7998530c34de24c7437d6b54>@@@?$__crt_seh_guarded_call@H@@QEAAH$$QEAV<lambda_751a882b2c74d4b022dec766aa51a29a>@@AEAV<lambda_628dfdc04ba53c8bfc02c9951375f3f5>@@$$QEAV<lambda_f6c7be5f7998530c34de24c7437d6b54>@@@Z 0000000180023eb8 f   libucrt:close.obj
 0001:00023410       $$000000                   0000000180024410     libucrt:log10.obj
 0001:00023ef0       _call_matherr              0000000180024ef0 f   libucrt:libm_error.obj
 0001:00023f58       _exception_enabled         0000000180024f58 f   libucrt:libm_error.obj
 0001:000241f0       _log_special_common        00000001800251f0 f   libucrt:log_special.obj
 0001:00024290       $$000000                   0000000180025290     libucrt:fpsr.obj
 0001:00024f00       $$000000                   0000000180025f00     LIBCMT:chkstk.obj
 0001:000250a0       $$000000                   00000001800260a0     libvcruntime:memcmp.obj
 0001:00025180       $$000000                   0000000180026180     LIBCMT:guard_dispatch.obj
 0001:000251a0       ?fin$0@?0??dllmain_crt_process_attach@@YAHQEAUHINSTANCE__@@QEAX@Z@4HA 00000001800261a0 f   LIBCMT:dll_dllmain.obj
 0001:000251b7       ?fin$0@?0??dllmain_crt_process_detach@@YAH_N@Z@4HA 00000001800261b7 f   LIBCMT:dll_dllmain.obj
 0001:000251d3       ?filt$0@?0??dllmain_dispatch@@YAHQEAUHINSTANCE__@@KQEAX@Z@4HA 00000001800261d3 f   LIBCMT:dll_dllmain.obj
 0001:00025209       __scrt_is_nonwritable_in_current_image$filt$0 0000000180026209 f   LIBCMT:utility.obj
 0001:00025221       __DestructExceptionObject$filt$0 0000000180026221 f   libvcruntime:ehhelpers.obj
 0001:000252b7       ?fin$0@?0???$?RV<lambda_842d9ff0dc9ef11c61343bbaebe7f885>@@AEAV<lambda_c5860995281e5c4ce005b3de8f5874ee>@@V<lambda_d90129c13df834fdcbf8d2b88dafcf2d>@@@?$__crt_seh_guarded_call@X@@QEAAX$$QEAV<lambda_842d9ff0dc9ef11c61343bbaebe7f885>@@AEAV<lambda_c5860995281e5c4ce005b3de8f5874ee>@@$$QEAV<lambda_d90129c13df834fdcbf8d2b88dafcf2d>@@@Z@4HA 00000001800262b7 f   libucrt:fflush.obj
 0001:000252b7       ?fin$0@?0???$?RV<lambda_c376a267cfb53b6959b3b692ec76b120>@@AEAV<lambda_9a32fed5bf61b6b509b2d3f6003082a1>@@V<lambda_572fbb9fa0ab338edf41edfd4b5fcc8d>@@@?$__crt_seh_guarded_call@H@@QEAAH$$QEAV<lambda_c376a267cfb53b6959b3b692ec76b120>@@AEAV<lambda_9a32fed5bf61b6b509b2d3f6003082a1>@@$$QEAV<lambda_572fbb9fa0ab338edf41edfd4b5fcc8d>@@@Z@4HA 00000001800262b7 f   libucrt:fflush.obj
 0001:000252b7       ?fin$0@?0???$?RV<lambda_676bd5779251ec186b530f0a904b4b35>@@AEAV<lambda_b579ea784fd840951dfbcbdaebf709fd>@@V<lambda_10027885da78ada7fb00668d7e2e96b5>@@@?$__crt_seh_guarded_call@H@@QEAAH$$QEAV<lambda_676bd5779251ec186b530f0a904b4b35>@@AEAV<lambda_b579ea784fd840951dfbcbdaebf709fd>@@$$QEAV<lambda_10027885da78ada7fb00668d7e2e96b5>@@@Z@4HA 00000001800262b7 f   libucrt:output.obj
 0001:000252b7       ?fin$0@?0???$?RV<lambda_fe5404e9642edbb7c8ae71e1dcfa4018>@@AEAV<lambda_36eeb330e99a4f0bf8a7da86d0894cb9>@@V<lambda_2fa474834de80dc12f7a3c6eddd7a366>@@@?$__crt_seh_guarded_call@H@@QEAAH$$QEAV<lambda_fe5404e9642edbb7c8ae71e1dcfa4018>@@AEAV<lambda_36eeb330e99a4f0bf8a7da86d0894cb9>@@$$QEAV<lambda_2fa474834de80dc12f7a3c6eddd7a366>@@@Z@4HA 00000001800262b7 f   libucrt:output.obj
 0001:000252b7       ?fin$0@?0???$?RV<lambda_84ec643ea9557e2f7dc01bb0e9624395>@@AEAV<lambda_ca71763b3c0644891230e4f79ea54fa6>@@V<lambda_439a761618c59b0600e24586724d733b>@@@?$__crt_seh_guarded_call@H@@QEAAH$$QEAV<lambda_84ec643ea9557e2f7dc01bb0e9624395>@@AEAV<lambda_ca71763b3c0644891230e4f79ea54fa6>@@$$QEAV<lambda_439a761618c59b0600e24586724d733b>@@@Z@4HA 00000001800262b7 f   libucrt:setvbuf.obj
 0001:000252d2       ?fin$0@?0???$?RV<lambda_0ae27a3a962d80f24befdcbee591983d>@@AEAV<lambda_8d0ee55de4b1038c4002e0adecdf1839>@@V<lambda_dc504788e8f1664fe9b84e20bfb512f2>@@@?$__crt_seh_guarded_call@X@@QEAAX$$QEAV<lambda_0ae27a3a962d80f24befdcbee591983d>@@AEAV<lambda_8d0ee55de4b1038c4002e0adecdf1839>@@$$QEAV<lambda_dc504788e8f1664fe9b84e20bfb512f2>@@@Z@4HA 00000001800262d2 f   libucrt:per_thread_data.obj
 0001:000252d2       ?fin$0@?0???$?RV<lambda_2d41944a1d46af3157314b8a01080d33>@@AEAV<lambda_8f455de75cd7d7f24b4096f044d8b9e6>@@V<lambda_aa500f224e6afead328df44964fe2772>@@@?$__crt_seh_guarded_call@X@@QEAAX$$QEAV<lambda_2d41944a1d46af3157314b8a01080d33>@@AEAV<lambda_8f455de75cd7d7f24b4096f044d8b9e6>@@$$QEAV<lambda_aa500f224e6afead328df44964fe2772>@@@Z@4HA 00000001800262d2 f   libucrt:per_thread_data.obj
 0001:000252d2       ?fin$0@?0???$?RV<lambda_aa87e3671a710a21b5dc78c0bdf72e11>@@AEAV<lambda_92619d2358a28f41a33ba319515a20b9>@@V<lambda_6992ecaafeb10aed2b74cb1fae11a551>@@@?$__crt_seh_guarded_call@X@@QEAAX$$QEAV<lambda_aa87e3671a710a21b5dc78c0bdf72e11>@@AEAV<lambda_92619d2358a28f41a33ba319515a20b9>@@$$QEAV<lambda_6992ecaafeb10aed2b74cb1fae11a551>@@@Z@4HA 00000001800262d2 f   libucrt:per_thread_data.obj
 0001:000252d2       ?fin$0@?0???$?RV<lambda_f2e299630e499de9f9a165e60fcd3db5>@@AEAV<lambda_2ae9d31cdba2644fcbeaf08da7c24588>@@V<lambda_40d01ff24d0e7b3814fdbdcee8eab3c7>@@@?$__crt_seh_guarded_call@X@@QEAAX$$QEAV<lambda_f2e299630e499de9f9a165e60fcd3db5>@@AEAV<lambda_2ae9d31cdba2644fcbeaf08da7c24588>@@$$QEAV<lambda_40d01ff24d0e7b3814fdbdcee8eab3c7>@@@Z@4HA 00000001800262d2 f   libucrt:per_thread_data.obj
 0001:000252d2       ?fin$0@?0???$?RV<lambda_efdfa57d1f175319df784efa44bb7b81>@@AEAV<lambda_5f0a4c1567f8adc6734073e5d1e1b35c>@@V<lambda_2e8a7d3640ea6ccb4c2413664c2db6fd>@@@?$__crt_seh_guarded_call@X@@QEAAX$$QEAV<lambda_efdfa57d1f175319df784efa44bb7b81>@@AEAV<lambda_5f0a4c1567f8adc6734073e5d1e1b35c>@@$$QEAV<lambda_2e8a7d3640ea6ccb4c2413664c2db6fd>@@@Z@4HA 00000001800262d2 f   libucrt:mbctype.obj
 0001:000252d2       ?fin$0@?0???$?RV<lambda_450d765d439847d4c735a33c368b5fc0>@@AEAV<lambda_44731a7d0e6d81c3e6aa82d741081786>@@V<lambda_601a2a7da3b7a96e9554ac7215c4b07c>@@@?$__crt_seh_guarded_call@P6AXH@Z@@QEAAP6AXH@Z$$QEAV<lambda_450d765d439847d4c735a33c368b5fc0>@@AEAV<lambda_44731a7d0e6d81c3e6aa82d741081786>@@$$QEAV<lambda_601a2a7da3b7a96e9554ac7215c4b07c>@@@Z@4HA 00000001800262d2 f   libucrt:signal.obj
 0001:000252d2       ?fin$0@?0???$?RV<lambda_d80eeec6fff315bfe5c115232f3240e3>@@AEAV<lambda_6e4b09c48022b2350581041d5f6b0c4c>@@V<lambda_2358e3775559c9db80273638284d5e45>@@@?$__crt_seh_guarded_call@X@@QEAAX$$QEAV<lambda_d80eeec6fff315bfe5c115232f3240e3>@@AEAV<lambda_6e4b09c48022b2350581041d5f6b0c4c>@@$$QEAV<lambda_2358e3775559c9db80273638284d5e45>@@@Z@4HA 00000001800262d2 f   libucrt:exit.obj
 0001:000252d2       ?fin$0@?0???$?RV<lambda_7777bce6b2f8c936911f934f8298dc43>@@AEAV<lambda_f03950bc5685219e0bcd2087efbe011e>@@V<lambda_3883c3dff614d5e0c5f61bb1ac94921c>@@@?$__crt_seh_guarded_call@H@@QEAAH$$QEAV<lambda_7777bce6b2f8c936911f934f8298dc43>@@AEAV<lambda_f03950bc5685219e0bcd2087efbe011e>@@$$QEAV<lambda_3883c3dff614d5e0c5f61bb1ac94921c>@@@Z@4HA 00000001800262d2 f   libucrt:onexit.obj
 0001:000252ec       ?filt$0@?0???R<lambda_6e4b09c48022b2350581041d5f6b0c4c>@@QEBA@XZ@4HA 00000001800262ec f   libucrt:exit.obj
 0001:00025307       ?fin$0@?0???$?RV<lambda_886d6c58226a84441f68b9f2b8217b83>@@AEAV<lambda_ab61a845afdef5b7c387490eaf3616ee>@@V<lambda_f7f22ab5edc0698d5f6905b0d3f44752>@@@?$__crt_seh_guarded_call@X@@QEAAX$$QEAV<lambda_886d6c58226a84441f68b9f2b8217b83>@@AEAV<lambda_ab61a845afdef5b7c387490eaf3616ee>@@$$QEAV<lambda_f7f22ab5edc0698d5f6905b0d3f44752>@@@Z@4HA 0000000180026307 f   libucrt:fflush.obj
 0001:00025324       raise$fin$0                0000000180026324 f   libucrt:signal.obj
 0001:00025345       _fcloseall$fin$0           0000000180026345 f   libucrt:closeall.obj
 0001:0002535e       __acrt_initialize_lowio$fin$0 000000018002635e f   libucrt:ioinit.obj
 0001:0002535e       __acrt_lowio_ensure_fh_exists$fin$0 000000018002635e f   libucrt:osfinfo.obj
 0001:00025377       ?fin$0@?0???$?RV<lambda_410d79af7f07d98d83a3f525b3859a53>@@AEAV<lambda_3e16ef9562a7dcce91392c22ab16ea36>@@V<lambda_38119f0e861e05405d8a144b9b982f0a>@@@?$__crt_seh_guarded_call@X@@QEAAX$$QEAV<lambda_410d79af7f07d98d83a3f525b3859a53>@@AEAV<lambda_3e16ef9562a7dcce91392c22ab16ea36>@@$$QEAV<lambda_38119f0e861e05405d8a144b9b982f0a>@@@Z@4HA 0000000180026377 f   libucrt:wsetlocale.obj
 0001:00025391       ?fin$0@?0??update_thread_multibyte_data_internal@@YAPEAU__crt_multibyte_data@@QEAU__acrt_ptd@@QEAPEAU1@@Z@4HA 0000000180026391 f   libucrt:mbctype.obj
 0001:000253aa       _query_new_handler$fin$0   00000001800263aa f   libucrt:new_handler.obj
 0001:000253c0       ?fin$0@?0???$?RV<lambda_751a882b2c74d4b022dec766aa51a29a>@@AEAV<lambda_628dfdc04ba53c8bfc02c9951375f3f5>@@V<lambda_f6c7be5f7998530c34de24c7437d6b54>@@@?$__crt_seh_guarded_call@H@@QEAAH$$QEAV<lambda_751a882b2c74d4b022dec766aa51a29a>@@AEAV<lambda_628dfdc04ba53c8bfc02c9951375f3f5>@@$$QEAV<lambda_f6c7be5f7998530c34de24c7437d6b54>@@@Z@4HA 00000001800263c0 f   libucrt:close.obj
 0001:000253c0       ?fin$0@?0???$?RV<lambda_a37b2b86f63e897a80ea819b0eb08c01>@@AEAV<lambda_38ce7e780aa69e748d6df282ebc68efe>@@V<lambda_99fb1378e971ab6e7edea83e3a7a83a2>@@@?$__crt_seh_guarded_call@H@@QEAAH$$QEAV<lambda_a37b2b86f63e897a80ea819b0eb08c01>@@AEAV<lambda_38ce7e780aa69e748d6df282ebc68efe>@@$$QEAV<lambda_99fb1378e971ab6e7edea83e3a7a83a2>@@@Z@4HA 00000001800263c0 f   libucrt:commit.obj
 0001:000253da       ?fin$0@?0???$common_lseek@_J@@YA_JH_JH@Z@4HA 00000001800263da f   libucrt:lseek.obj
 0001:000253da       _write$fin$0               00000001800263da f   libucrt:write.obj
 0001:000253f1       fclose$fin$0               00000001800263f1 f   libucrt:fclose.obj
 0001:00025409       __acrt_update_thread_locale_data$fin$0 0000000180026409 f   libucrt:locale_refcounting.obj
 0001:00025422       _ctrlfp$filt$0             0000000180026422 f   libucrt:fpctrl.obj
 0001:00025450       _IsNonwritableInCurrentImage$filt$0 0000000180026450 f   LIBCMT:pesect.obj
 0002:000002f8       GS_ExceptionPointers       00000001800272f8     LIBCMT:gs_report.obj
 0002:00000330       ?tokenTable@@3QBUStringLiteral@@B 0000000180027330     libvcruntime:undname.obj
 0002:00000430       ?nameTable@@3QBUStringLiteral@@B 0000000180027430     libvcruntime:undname.obj
 0002:00000960       ?rttiTable@@3QBUStringLiteral@@B 0000000180027960     libvcruntime:undname.obj
 0002:000009b0       ?IndirectionName@@3QBUStringLiteral@@B 00000001800279b0     libvcruntime:undname.obj
 0002:00000a10       ?PrefixName@@3QBUStringLiteral@@B 0000000180027a10     libvcruntime:undname.obj
 0002:000010e8       ?module_names@?A0x87d18907@@3QBQEB_WB 00000001800280e8     libvcruntime:winapi_downlevel.obj
 0002:000011a8       ?candidate_modules@?1??try_get_FlsAlloc@@YAP6AKP6AXPEAX@Z@ZXZ@4QBW4module_id@?A0x87d18907@@B 00000001800281a8     libvcruntime:winapi_downlevel.obj
 0002:000011c0       ?candidate_modules@?1??try_get_FlsFree@@YAP6AHK@ZXZ@4QBW4module_id@?A0x87d18907@@B 00000001800281c0     libvcruntime:winapi_downlevel.obj
 0002:000011d0       ?candidate_modules@?1??try_get_FlsGetValue@@YAP6APEAXK@ZXZ@4QBW4module_id@?A0x87d18907@@B 00000001800281d0     libvcruntime:winapi_downlevel.obj
 0002:000011e8       ?candidate_modules@?1??try_get_FlsSetValue@@YAP6AHKPEAX@ZXZ@4QBW4module_id@?A0x87d18907@@B 00000001800281e8     libvcruntime:winapi_downlevel.obj
 0002:00001200       ?candidate_modules@?1??try_get_InitializeCriticalSectionEx@@YAP6AHPEAU_RTL_CRITICAL_SECTION@@KK@ZXZ@4QBW4module_id@?A0x87d18907@@B 0000000180028200     libvcruntime:winapi_downlevel.obj
 0002:00001690       __acrt_initializers        0000000180028690     libucrt:initialization.obj
 0002:00001790       ?errtable@@3QBUerrentry@?A0x31fdb9ec@@B 0000000180028790     libucrt:errno.obj
 0002:00001900       ?module_names@?A0x391cf84c@@3QBQEB_WB 0000000180028900     libucrt:winapi_thunks.obj
 0002:00001e08       ?candidate_modules@?1??try_get_AreFileApisANSI@@YAP6AHXZXZ@4QBW4module_id@?A0x391cf84c@@B 0000000180028e08     libucrt:winapi_thunks.obj
 0002:00001e20       ?candidate_modules@?1??try_get_FlsAlloc@@YAP6AKP6AXPEAX@Z@ZXZ@4QBW4module_id@?A0x391cf84c@@B 0000000180028e20     libucrt:winapi_thunks.obj
 0002:00001e28       ?candidate_modules@?1??try_get_FlsFree@@YAP6AHK@ZXZ@4QBW4module_id@?A0x391cf84c@@B 0000000180028e28     libucrt:winapi_thunks.obj
 0002:00001e30       ?candidate_modules@?1??try_get_FlsGetValue@@YAP6APEAXK@ZXZ@4QBW4module_id@?A0x391cf84c@@B 0000000180028e30     libucrt:winapi_thunks.obj
 0002:00001e38       ?candidate_modules@?1??try_get_FlsSetValue@@YAP6AHKPEAX@ZXZ@4QBW4module_id@?A0x391cf84c@@B 0000000180028e38     libucrt:winapi_thunks.obj
 0002:00001e40       ?candidate_modules@?1??try_get_GetActiveWindow@@YAP6APEAUHWND__@@XZXZ@4QBW4module_id@?A0x391cf84c@@B 0000000180028e40     libucrt:winapi_thunks.obj
 0002:00001e58       ?candidate_modules@?1??try_get_GetLastActivePopup@@YAP6APEAUHWND__@@PEAU2@@ZXZ@4QBW4module_id@?A0x391cf84c@@B 0000000180028e58     libucrt:winapi_thunks.obj
 0002:00001e78       ?candidate_modules@?1??try_get_GetProcessWindowStation@@YAP6APEAUHWINSTA__@@XZXZ@4QBW4module_id@?A0x391cf84c@@B 0000000180028e78     libucrt:winapi_thunks.obj
 0002:00001e98       ?candidate_modules@?1??try_get_GetUserObjectInformationW@@YAP6AHPEAXH0KPEAK@ZXZ@4QBW4module_id@?A0x391cf84c@@B 0000000180028e98     libucrt:winapi_thunks.obj
 0002:00001ec0       ?candidate_modules@?1??try_get_InitializeCriticalSectionEx@@YAP6AHPEAU_RTL_CRITICAL_SECTION@@KK@ZXZ@4QBW4module_id@?A0x391cf84c@@B 0000000180028ec0     libucrt:winapi_thunks.obj
 0002:00001ec8       ?candidate_modules@?1??try_get_LCMapStringEx@@YAP6AHPEB_WK0HPEA_WHPEAU_nlsversioninfo@@PEAX_J@ZXZ@4QBW4module_id@?A0x391cf84c@@B 0000000180028ec8     libucrt:winapi_thunks.obj
 0002:00001ee0       ?candidate_modules@?1??try_get_LocaleNameToLCID@@YAP6AKPEB_WK@ZXZ@4QBW4module_id@?A0x391cf84c@@B 0000000180028ee0     libucrt:winapi_thunks.obj
 0002:00001f00       ?candidate_modules@?1??try_get_MessageBoxA@@YAP6AHPEAUHWND__@@PEBD1I@ZXZ@4QBW4module_id@?A0x391cf84c@@B 0000000180028f00     libucrt:winapi_thunks.obj
 0002:00001f18       ?candidate_modules@?1??try_get_MessageBoxW@@YAP6AHPEAUHWND__@@PEB_W1I@ZXZ@4QBW4module_id@?A0x391cf84c@@B 0000000180028f18     libucrt:winapi_thunks.obj
 0002:00001f2c       ?candidate_modules@?1??try_get_AppPolicyGetProcessTerminationMethod@@YAP6AJPEAXPEAW4AppPolicyProcessTerminationMethod@@@ZXZ@4QBW4module_id@?A0x391cf84c@@B 0000000180028f2c     libucrt:winapi_thunks.obj
 0002:00001f58       ?candidate_modules@?1??try_get_AppPolicyGetShowDeveloperDiagnostic@@YAP6AJPEAXPEAW4AppPolicyShowDeveloperDiagnostic@@@ZXZ@4QBW4module_id@?A0x391cf84c@@B 0000000180028f58     libucrt:winapi_thunks.obj
 0002:00001f84       ?candidate_modules@?1??try_get_AppPolicyGetWindowingModel@@YAP6AJPEAXPEAW4AppPolicyWindowingModel@@@ZXZ@4QBW4module_id@?A0x391cf84c@@B 0000000180028f84     libucrt:winapi_thunks.obj
 0002:00001fb0       ?strings@?1??fp_format_nan_or_infinity@@YAHW4__acrt_fp_class@@_NPEAD_K1@Z@4QAY03QEBDA 0000000180028fb0     libucrt:cvt.obj
 0002:00002710       ?_mb_locale_names@@3QBQEB_WB 0000000180029710     libucrt:mbctype.obj
 0002:00002f80       ?LcidToLocaleNameTable@?A0x881e4c05@@3QBULcidToLocaleName@1@B 0000000180029f80     libucrt:lcidtoname_downlevel.obj
 0002:000049e0       ?LocaleNameToIndexTable@?A0x881e4c05@@3QBULocaleNameIndex@1@B 000000018002b9e0     libucrt:lcidtoname_downlevel.obj
 0002:00006b90       ?large_power_indices@?1??multiply_by_power_of_ten@__crt_strtox@@YA_NAEAUbig_integer@2@I@Z@4QBUunpack_index@?1??12@YA_N0I@Z@B 000000018002db90     libucrt:cfout.obj
 0002:00006c80       __real_ninf                000000018002dc80     libucrt:log10.obj
 0002:00006c90       __real_inf                 000000018002dc90     libucrt:log10.obj
 0002:00006ca0       __real_neg_qnan            000000018002dca0     libucrt:log10.obj
 0002:00006cb0       __real_qnanbit             000000018002dcb0     libucrt:log10.obj
 0002:00006cc0       __int_1023                 000000018002dcc0     libucrt:log10.obj
 0002:00006cd0       __mask_001                 000000018002dcd0     libucrt:log10.obj
 0002:00006ce0       __mask_mant                000000018002dce0     libucrt:log10.obj
 0002:00006cf0       __mask_mant_top8           000000018002dcf0     libucrt:log10.obj
 0002:00006d00       __mask_mant9               000000018002dd00     libucrt:log10.obj
 0002:00006d10       __real_log10_e             000000018002dd10     libucrt:log10.obj
 0002:00006d20       __real_log10_e_lead        000000018002dd20     libucrt:log10.obj
 0002:00006d30       __real_log10_e_tail        000000018002dd30     libucrt:log10.obj
 0002:00006d40       __real_log10_2_lead        000000018002dd40     libucrt:log10.obj
 0002:00006d50       __real_log10_2_tail        000000018002dd50     libucrt:log10.obj
 0002:00006d60       __real_two                 000000018002dd60     libucrt:log10.obj
 0002:00006d70       __real_one                 000000018002dd70     libucrt:log10.obj
 0002:00006d80       __real_half                000000018002dd80     libucrt:log10.obj
 0002:00006d90       __mask_100                 000000018002dd90     libucrt:log10.obj
 0002:00006da0       __real_1_over_512          000000018002dda0     libucrt:log10.obj
 0002:00006db0       __real_1_over_2            000000018002ddb0     libucrt:log10.obj
 0002:00006dc0       __real_1_over_3            000000018002ddc0     libucrt:log10.obj
 0002:00006dd0       __real_1_over_4            000000018002ddd0     libucrt:log10.obj
 0002:00006de0       __real_1_over_5            000000018002dde0     libucrt:log10.obj
 0002:00006df0       __real_1_over_6            000000018002ddf0     libucrt:log10.obj
 0002:00006e00       __real_neg_1023            000000018002de00     libucrt:log10.obj
 0002:00006e10       __mask_2045                000000018002de10     libucrt:log10.obj
 0002:00006e20       __real_threshold           000000018002de20     libucrt:log10.obj
 0002:00006e30       __real_near_one_lt         000000018002de30     libucrt:log10.obj
 0002:00006e40       __real_near_one_gt         000000018002de40     libucrt:log10.obj
 0002:00006e50       __real_min_norm            000000018002de50     libucrt:log10.obj
 0002:00006e60       __real_notsign             000000018002de60     libucrt:log10.obj
 0002:00006e70       __real_ca1                 000000018002de70     libucrt:log10.obj
 0002:00006e80       __real_ca2                 000000018002de80     libucrt:log10.obj
 0002:00006e90       __real_ca3                 000000018002de90     libucrt:log10.obj
 0002:00006ea0       __real_ca4                 000000018002dea0     libucrt:log10.obj
 0002:00006eb0       __mask_lower               000000018002deb0     libucrt:log10.obj
 0002:00006ec0       __flag_x_zero              000000018002dec0     libucrt:log10.obj
 0002:00006ec4       __flag_x_neg               000000018002dec4     libucrt:log10.obj
 0002:00006ec8       __flag_x_nan               000000018002dec8     libucrt:log10.obj
 0002:00008720       __real@433fffffffffffff    000000018002f720     libucrt:fpsr.obj
 0002:00008728       __real@c33fffffffffffff    000000018002f728     libucrt:fpsr.obj
 0002:00008b60       ?GROUP_ORDER@?A0xa5113622@@3V?$array@E$0CA@@std@@B 000000018002fb60     addon.obj
 0002:00008b88       ?zero@?1??secp256k1_rfc6979_hmac_sha256_initialize@@9@9 000000018002fb88     secp256k1.obj
 0002:00008b89       ?zero@?1??secp256k1_rfc6979_hmac_sha256_generate@@9@9 000000018002fb89     secp256k1.obj
 0002:00008b8a       ?one@?1??secp256k1_rfc6979_hmac_sha256_initialize@@9@9 000000018002fb8a     secp256k1.obj
 0002:00008b90       default_error_callback     000000018002fb90     secp256k1.obj
 0002:00008bb0       secp256k1_ge_const_g       000000018002fbb0     secp256k1.obj
 0002:00008c08       ?fe_1@?1??secp256k1_gej_add_ge@@9@9 000000018002fc08     secp256k1.obj
 0002:00008c30       secp256k1_ecdsa_const_p_minus_order 000000018002fc30     secp256k1.obj
 0002:00008c60       default_illegal_callback   000000018002fc60     secp256k1.obj
 0002:00008c70       ?pad@?1??secp256k1_sha256_finalize@@9@9 000000018002fc70     secp256k1.obj
 0002:00008cb0       secp256k1_ecdsa_const_order_as_fe 000000018002fcb0     secp256k1.obj
 0002:00008cd8       ?nums_b32@?3??secp256k1_ecmult_gen_context_build@@9@9 000000018002fcd8     secp256k1.obj
 0002:00009440       $unwind$?FunctionCallbackWrapper@imp@Nan@@YAXAEBV?$FunctionCallbackInfo@VValue@v8@@@v8@@@Z 0000000180030440     addon.obj
 0002:00009454       $unwind$?ThrowTypeError@Nan@@YAXPEBD@Z 0000000180030454     addon.obj
 0002:0000945c       $unwind$?Export@Nan@@YAXV?$Local@VObject@v8@@@v8@@PEBDP6AXAEBV?$FunctionCallbackInfo@VValue@v8@@@1@@Z@Z 000000018003045c     addon.obj
 0002:00009478       $unwind$?eccIsPoint@@YAXAEBV?$FunctionCallbackInfo@VValue@v8@@@Nan@@@Z 0000000180030478     addon.obj
 0002:00009478       $unwind$?eccIsPointCompressed@@YAXAEBV?$FunctionCallbackInfo@VValue@v8@@@Nan@@@Z 0000000180030478     addon.obj
 0002:00009480       $unwind$?eccIsPrivate@@YAXAEBV?$FunctionCallbackInfo@VValue@v8@@@Nan@@@Z 0000000180030480     addon.obj
 0002:0000948c       $unwind$?eccPointAdd@@YAXAEBV?$FunctionCallbackInfo@VValue@v8@@@Nan@@@Z 000000018003048c     addon.obj
 0002:000094a4       $chain$0$?eccPointAdd@@YAXAEBV?$FunctionCallbackInfo@VValue@v8@@@Nan@@@Z 00000001800304a4     addon.obj
 0002:000094b8       $chain$1$?eccPointAdd@@YAXAEBV?$FunctionCallbackInfo@VValue@v8@@@Nan@@@Z 00000001800304b8     addon.obj
 0002:000094c8       $unwind$?eccPointAddScalar@@YAXAEBV?$FunctionCallbackInfo@VValue@v8@@@Nan@@@Z 00000001800304c8     addon.obj
 0002:000094c8       $unwind$?eccPointMultiply@@YAXAEBV?$FunctionCallbackInfo@VValue@v8@@@Nan@@@Z 00000001800304c8     addon.obj
 0002:000094e0       $unwind$?eccPointCompress@@YAXAEBV?$FunctionCallbackInfo@VValue@v8@@@Nan@@@Z 00000001800304e0     addon.obj
 0002:000094f4       $chain$0$?eccPointCompress@@YAXAEBV?$FunctionCallbackInfo@VValue@v8@@@Nan@@@Z 00000001800304f4     addon.obj
 0002:00009508       $chain$1$?eccPointCompress@@YAXAEBV?$FunctionCallbackInfo@VValue@v8@@@Nan@@@Z 0000000180030508     addon.obj
 0002:00009518       $unwind$?eccPointFromScalar@@YAXAEBV?$FunctionCallbackInfo@VValue@v8@@@Nan@@@Z 0000000180030518     addon.obj
 0002:00009538       $chain$0$?eccPointFromScalar@@YAXAEBV?$FunctionCallbackInfo@VValue@v8@@@Nan@@@Z 0000000180030538     addon.obj
 0002:0000954c       $chain$1$?eccPointFromScalar@@YAXAEBV?$FunctionCallbackInfo@VValue@v8@@@Nan@@@Z 000000018003054c     addon.obj
 0002:0000955c       $chain$2$?eccPointFromScalar@@YAXAEBV?$FunctionCallbackInfo@VValue@v8@@@Nan@@@Z 000000018003055c     addon.obj
 0002:00009570       $unwind$?eccPrivateAdd@@YAXAEBV?$FunctionCallbackInfo@VValue@v8@@@Nan@@@Z 0000000180030570     addon.obj
 0002:0000958c       $unwind$?eccPrivateSub@@YAXAEBV?$FunctionCallbackInfo@VValue@v8@@@Nan@@@Z 000000018003058c     addon.obj
 0002:000095ac       $unwind$?ecdsaSign@@YAXAEBV?$FunctionCallbackInfo@VValue@v8@@@Nan@@@Z 00000001800305ac     addon.obj
 0002:000095c8       $unwind$?ecdsaVerify@@YAXAEBV?$FunctionCallbackInfo@VValue@v8@@@Nan@@@Z 00000001800305c8     addon.obj
 0002:000095e0       $chain$0$?ecdsaVerify@@YAXAEBV?$FunctionCallbackInfo@VValue@v8@@@Nan@@@Z 00000001800305e0     addon.obj
 0002:000095f4       $chain$1$?ecdsaVerify@@YAXAEBV?$FunctionCallbackInfo@VValue@v8@@@Nan@@@Z 00000001800305f4     addon.obj
 0002:00009604       $unwind$?Init@@YAXV?$Local@VObject@v8@@@v8@@@Z 0000000180030604     addon.obj
 0002:00009624       $unwind$??$isPoint@V?$Local@VObject@v8@@@v8@@@?A0xa5113622@@YA_NAEBV?$Local@VObject@v8@@@v8@@AEAUsecp256k1_pubkey@@@Z 0000000180030624     addon.obj
 0002:0000963c       $chain$0$??$isPoint@V?$Local@VObject@v8@@@v8@@@?A0xa5113622@@YA_NAEBV?$Local@VObject@v8@@@v8@@AEAUsecp256k1_pubkey@@@Z 000000018003063c     addon.obj
 0002:00009650       $chain$1$??$isPoint@V?$Local@VObject@v8@@@v8@@@?A0xa5113622@@YA_NAEBV?$Local@VObject@v8@@@v8@@AEAUsecp256k1_pubkey@@@Z 0000000180030650     addon.obj
 0002:00009660       $chain$2$??$isPoint@V?$Local@VObject@v8@@@v8@@@?A0xa5113622@@YA_NAEBV?$Local@VObject@v8@@@v8@@AEAUsecp256k1_pubkey@@@Z 0000000180030660     addon.obj
 0002:00009674       $unwind$??$assumeCompression@$01V?$FunctionCallbackInfo@VValue@v8@@@Nan@@V?$Local@VObject@v8@@@v8@@@?A0xa5113622@@YAIAEBV?$FunctionCallbackInfo@VValue@v8@@@Nan@@AEBV?$Local@VObject@v8@@@v8@@@Z 0000000180030674     addon.obj
 0002:00009674       $unwind$secp256k1_ecdsa_signature_serialize_compact 0000000180030674     secp256k1.obj
 0002:00009674       $unwind$?load_exe_hook@@YAP6A_JXZIPEAUDelayLoadInfo@@@Z 0000000180030674     win_delay_load_hook.obj
 0002:00009674       $unwind$?DloadReleaseSectionWriteAccess@@YAXXZ 0000000180030674     DelayImp:delayhlp.obj
 0002:00009674       $unwind$__scrt_initialize_default_local_stdio_options 0000000180030674     LIBCMT:default_local_stdio_options.obj
 0002:00009674       $unwind$?dllmain_crt_dispatch@@YAHQEAUHINSTANCE__@@KQEAX@Z 0000000180030674     LIBCMT:dll_dllmain.obj
 0002:00009674       $unwind$__report_rangecheckfailure 0000000180030674     LIBCMT:gs_report.obj
 0002:00009674       $unwind$__GSHandlerCheck   0000000180030674     LIBCMT:gshandler.obj
 0002:00009674       $unwind$__scrt_acquire_startup_lock 0000000180030674     LIBCMT:utility.obj
 0002:00009674       $unwind$__scrt_dllmain_after_initialize_c 0000000180030674     LIBCMT:utility.obj
 0002:00009674       $unwind$__scrt_dllmain_before_initialize_c 0000000180030674     LIBCMT:utility.obj
 0002:00009674       $unwind$__scrt_dllmain_crt_thread_attach 0000000180030674     LIBCMT:utility.obj
 0002:00009674       $unwind$__scrt_dllmain_crt_thread_detach 0000000180030674     LIBCMT:utility.obj
 0002:00009674       $unwind$__scrt_dllmain_uninitialize_c 0000000180030674     LIBCMT:utility.obj
 0002:00009674       $unwind$__scrt_dllmain_uninitialize_critical 0000000180030674     LIBCMT:utility.obj
 0002:00009674       $unwind$__vcrt_initialize  0000000180030674     libvcruntime:initialization.obj
 0002:00009674       $unwind$__vcrt_thread_attach 0000000180030674     libvcruntime:initialization.obj
 0002:00009674       $unwind$__vcrt_thread_detach 0000000180030674     libvcruntime:initialization.obj
 0002:00009674       $unwind$__vcrt_uninitialize 0000000180030674     libvcruntime:initialization.obj
 0002:00009674       $unwind$__vcrt_uninitialize_critical 0000000180030674     libvcruntime:initialization.obj
 0002:00009674       $unwind$__vcrt_initialize_locks 0000000180030674     libvcruntime:locks.obj
 0002:00009674       $unwind$__vcrt_freefls     0000000180030674     libvcruntime:per_thread_data.obj
 0002:00009674       $unwind$__vcrt_getptd      0000000180030674     libvcruntime:per_thread_data.obj
 0002:00009674       $unwind$__vcrt_initialize_ptd 0000000180030674     libvcruntime:per_thread_data.obj
 0002:00009674       $unwind$__vcrt_uninitialize_ptd 0000000180030674     libvcruntime:per_thread_data.obj
 0002:00009674       $unwind$__dcrt_terminate_console_output 0000000180030674     libucrt:initcon.obj
 0002:00009674       $unwind$??$uninitialize_environment_internal@D@@YAXAEAPEAPEAD@Z 0000000180030674     libucrt:environment_initialization.obj
 0002:00009674       $unwind$??$uninitialize_environment_internal@_W@@YAXAEAPEAPEA_W@Z 0000000180030674     libucrt:environment_initialization.obj
 0002:00009674       $unwind$__dcrt_uninitialize_environments_nolock 0000000180030674     libucrt:environment_initialization.obj
 0002:00009674       $unwind$?__c32rtomb_utf8@__crt_mbstring@@YA_KPEAD_UPEAU_Mbstatet@@@Z 0000000180030674     libucrt:c32rtomb.obj
 0002:00009674       $unwind$__acrt_initialize_heap 0000000180030674     libucrt:heap_handle.obj
 0002:00009674       $unwind$_msize_base        0000000180030674     libucrt:msize.obj
 0002:00009674       $unwind$?initialize_multibyte@@YAHXZ 0000000180030674     libucrt:multibyte_initializer.obj
 0002:00009674       $unwind$__acrt_thread_attach 0000000180030674     libucrt:initialization.obj
 0002:00009674       $unwind$__acrt_thread_detach 0000000180030674     libucrt:initialization.obj
 0002:00009674       $unwind$__acrt_uninitialize 0000000180030674     libucrt:initialization.obj
 0002:00009674       $unwind$__acrt_uninitialize_critical 0000000180030674     libucrt:initialization.obj
 0002:00009674       $unwind$initialize_c       0000000180030674     libucrt:initialization.obj
 0002:00009674       $unwind$uninitialize_allocated_io_buffers 0000000180030674     libucrt:initialization.obj
 0002:00009674       $unwind$uninitialize_environment 0000000180030674     libucrt:initialization.obj
 0002:00009674       $unwind$__acrt_initialize_ptd 0000000180030674     libucrt:per_thread_data.obj
 0002:00009674       $unwind$__acrt_uninitialize_ptd 0000000180030674     libucrt:per_thread_data.obj
 0002:00009674       $unwind$__acrt_AreFileApisANSI 0000000180030674     libucrt:winapi_thunks.obj
 0002:00009674       $unwind$__pctype_func      0000000180030674     libucrt:ctype.obj
 0002:00009674       $unwind$__acrt_release_locale_ref 0000000180030674     libucrt:locale_refcounting.obj
 0002:00009674       $unwind$_isatty            0000000180030674     libucrt:isatty.obj
 0002:00009674       $unwind$_get_osfhandle     0000000180030674     libucrt:osfinfo.obj
 0002:00009674       $unwind$__acrt_initialize_multibyte 0000000180030674     libucrt:mbctype.obj
 0002:00009674       $unwind$__acrt_update_thread_multibyte_data 0000000180030674     libucrt:mbctype.obj
 0002:00009674       $unwind$__doserrno         0000000180030674     libucrt:errno.obj
 0002:00009674       $unwind$_errno             0000000180030674     libucrt:errno.obj
 0002:00009674       $unwind$_invoke_watson     0000000180030674     libucrt:invalid_parameter.obj
 0002:00009674       $unwind$_set_error_mode    0000000180030674     libucrt:set_error_mode.obj
 0002:00009674       $unwind$abort              0000000180030674     libucrt:abort.obj
 0002:00009674       $unwind$__acrt_initialize_command_line 0000000180030674     libucrt:argv_data.obj
 0002:00009674       $unwind$_fileno            0000000180030674     libucrt:fileno.obj
 0002:00009674       $unwind$?state_case_size@?$output_processor@DV?$stream_output_adapter@D@__crt_stdio_output@@V?$standard_base@DV?$stream_output_adapter@D@__crt_stdio_output@@@2@@__crt_stdio_output@@AEAA_NXZ 0000000180030674     libucrt:output.obj
 0002:00009674       $unwind$?state_case_size@?$output_processor@_WV?$stream_output_adapter@_W@__crt_stdio_output@@V?$standard_base@_WV?$stream_output_adapter@_W@__crt_stdio_output@@@2@@__crt_stdio_output@@AEAA_NXZ 0000000180030674     libucrt:output.obj
 0002:00009674       $unwind$?state_case_size@?$output_processor@_WV?$string_output_adapter@_W@__crt_stdio_output@@V?$standard_base@_WV?$string_output_adapter@_W@__crt_stdio_output@@@2@@__crt_stdio_output@@AEAA_NXZ 0000000180030674     libucrt:output.obj
 0002:00009674       $unwind$?validate_stream_is_ansi_if_required@?$__acrt_stdio_char_traits@D@@SA_NQEAU_iobuf@@@Z 0000000180030674     libucrt:output.obj
 0002:00009674       $unwind$_stricmp           0000000180030674     libucrt:stricmp.obj
 0002:00009674       $unwind$_statfp            0000000180030674     libucrt:fpctrl.obj
 0002:00009674       $unwind$_set_errno_from_matherr 0000000180030674     libucrt:fpexcept.obj
 0002:0000967c       $unwind$fprintf            000000018003067c     secp256k1.obj
 0002:0000967c       $unwind$fwprintf           000000018003067c     libucrt:assert.obj
 0002:00009688       $unwind$secp256k1_fe_normalize 0000000180030688     secp256k1.obj
 0002:00009688       $unwind$secp256k1_scalar_add 0000000180030688     secp256k1.obj
 0002:00009688       $unwind$secp256k1_scalar_set_b32 0000000180030688     secp256k1.obj
 0002:000096a4       $unwind$secp256k1_fe_normalize_weak 00000001800306a4     secp256k1.obj
 0002:000096b8       $unwind$secp256k1_fe_normalize_var 00000001800306b8     secp256k1.obj
 0002:000096d0       $unwind$secp256k1_fe_normalizes_to_zero 00000001800306d0     secp256k1.obj
 0002:000096d0       $unwind$secp256k1_fe_set_b32 00000001800306d0     secp256k1.obj
 0002:000096e8       $unwind$secp256k1_fe_normalizes_to_zero_var 00000001800306e8     secp256k1.obj
 0002:00009704       $unwind$secp256k1_fe_mul_inner 0000000180030704     secp256k1.obj
 0002:0000971c       $unwind$secp256k1_fe_sqr_inner 000000018003071c     secp256k1.obj
 0002:0000971c       $unwind$secp256k1_sha256_transform 000000018003071c     secp256k1.obj
 0002:00009734       $unwind$secp256k1_fe_sqrt  0000000180030734     secp256k1.obj
 0002:00009754       $unwind$secp256k1_fe_inv   0000000180030754     secp256k1.obj
 0002:00009778       $unwind$secp256k1_scalar_reduce_512 0000000180030778     secp256k1.obj
 0002:00009790       $unwind$secp256k1_scalar_mul_512 0000000180030790     secp256k1.obj
 0002:000097a8       $unwind$secp256k1_scalar_sqr_512 00000001800307a8     secp256k1.obj
 0002:000097c0       $unwind$secp256k1_scalar_inverse 00000001800307c0     secp256k1.obj
 0002:000097e4       $unwind$secp256k1_ge_set_gej 00000001800307e4     secp256k1.obj
 0002:000097fc       $unwind$secp256k1_ge_set_all_gej_var 00000001800307fc     secp256k1.obj
 0002:0000981c       $unwind$secp256k1_ge_set_xo_var 000000018003081c     secp256k1.obj
 0002:00009838       $unwind$secp256k1_gej_eq_x_var 0000000180030838     secp256k1.obj
 0002:00009854       $unwind$default_error_callback_fn 0000000180030854     secp256k1.obj
 0002:00009854       $unwind$default_illegal_callback_fn 0000000180030854     secp256k1.obj
 0002:00009854       $unwind$secp256k1_gej_neg  0000000180030854     secp256k1.obj
 0002:00009854       $unwind$?DloadAcquireSectionWriteAccess@@YAXXZ 0000000180030854     DelayImp:delayhlp.obj
 0002:00009854       $unwind$__raise_securityfailure 0000000180030854     LIBCMT:gs_report.obj
 0002:00009854       $unwind$__scrt_initialize_crt 0000000180030854     LIBCMT:utility.obj
 0002:00009854       $unwind$__scrt_initialize_onexit_tables 0000000180030854     LIBCMT:utility.obj
 0002:00009854       $unwind$__scrt_release_startup_lock 0000000180030854     LIBCMT:utility.obj
 0002:00009854       $unwind$__scrt_uninitialize_crt 0000000180030854     LIBCMT:utility.obj
 0002:00009854       $unwind$__vcrt_uninitialize_locks 0000000180030854     libvcruntime:locks.obj
 0002:00009854       $unwind$__vcrt_freeptd     0000000180030854     libvcruntime:per_thread_data.obj
 0002:00009854       $unwind$__std_type_info_destroy_list 0000000180030854     libvcruntime:std_type_info.obj
 0002:00009854       $unwind$__vcrt_FlsAlloc    0000000180030854     libvcruntime:winapi_downlevel.obj
 0002:00009854       $unwind$__vcrt_FlsFree     0000000180030854     libvcruntime:winapi_downlevel.obj
 0002:00009854       $unwind$__vcrt_FlsGetValue 0000000180030854     libvcruntime:winapi_downlevel.obj
 0002:00009854       $unwind$_calloc_base       0000000180030854     libucrt:calloc_base.obj
 0002:00009854       $unwind$_malloc_base       0000000180030854     libucrt:malloc_base.obj
 0002:00009854       $unwind$_callnewh          0000000180030854     libucrt:new_handler.obj
 0002:00009854       $unwind$initialize_pointers 0000000180030854     libucrt:initialization.obj
 0002:00009854       $unwind$uninitialize_allocated_memory 0000000180030854     libucrt:initialization.obj
 0002:00009854       $unwind$__acrt_initialize_locks 0000000180030854     libucrt:locks.obj
 0002:00009854       $unwind$__acrt_uninitialize_locks 0000000180030854     libucrt:locks.obj
 0002:00009854       $unwind$__acrt_freeptd     0000000180030854     libucrt:per_thread_data.obj
 0002:00009854       $unwind$__acrt_getptd_head 0000000180030854     libucrt:per_thread_data.obj
 0002:00009854       $unwind$__acrt_get_developer_information_policy 0000000180030854     libucrt:win_policies.obj
 0002:00009854       $unwind$__acrt_get_process_end_policy 0000000180030854     libucrt:win_policies.obj
 0002:00009854       $unwind$__acrt_get_windowing_model_policy 0000000180030854     libucrt:win_policies.obj
 0002:00009854       $unwind$__acrt_AppPolicyGetProcessTerminationMethodInternal 0000000180030854     libucrt:winapi_thunks.obj
 0002:00009854       $unwind$__acrt_AppPolicyGetShowDeveloperDiagnosticInternal 0000000180030854     libucrt:winapi_thunks.obj
 0002:00009854       $unwind$__acrt_AppPolicyGetWindowingModelInternal 0000000180030854     libucrt:winapi_thunks.obj
 0002:00009854       $unwind$__acrt_FlsAlloc    0000000180030854     libucrt:winapi_thunks.obj
 0002:00009854       $unwind$__acrt_FlsFree     0000000180030854     libucrt:winapi_thunks.obj
 0002:00009854       $unwind$__acrt_FlsGetValue 0000000180030854     libucrt:winapi_thunks.obj
 0002:00009854       $unwind$__acrt_get_parent_window 0000000180030854     libucrt:winapi_thunks.obj
 0002:00009854       $unwind$__acrt_uninitialize_winapi_thunks 0000000180030854     libucrt:winapi_thunks.obj
 0002:00009854       $unwind$__acrt_update_locale_info 0000000180030854     libucrt:locale_update.obj
 0002:00009854       $unwind$__acrt_update_multibyte_info 0000000180030854     libucrt:locale_update.obj
 0002:00009854       $unwind$__acrt_allocate_buffer_for_argv 0000000180030854     libucrt:argv_parsing.obj
 0002:00009854       $unwind$?exit_or_terminate_process@@YAXI@Z 0000000180030854     libucrt:exit.obj
 0002:00009854       $unwind$?try_cor_exit_process@@YAXI@Z 0000000180030854     libucrt:exit.obj
 0002:00009854       $unwind$__acrt_uninitialize_stdio 0000000180030854     libucrt:_file.obj
 0002:00009854       $unwind$?stream_is_at_end_of_file_nolock@@YA_NV__crt_stdio_stream@@@Z 0000000180030854     libucrt:_flsbuf.obj
 0002:00009854       $unwind$__acrt_stdio_free_buffer_nolock 0000000180030854     libucrt:_freebuf.obj
 0002:00009854       $unwind$_fflush_nolock     0000000180030854     libucrt:fflush.obj
 0002:00009854       $unwind$?state_case_normal@?$output_processor@DV?$stream_output_adapter@D@__crt_stdio_output@@V?$standard_base@DV?$stream_output_adapter@D@__crt_stdio_output@@@2@@__crt_stdio_output@@AEAA_NXZ 0000000180030854     libucrt:output.obj
 0002:00009854       $unwind$?state_case_normal_tchar@?$output_processor@DV?$stream_output_adapter@D@__crt_stdio_output@@V?$standard_base@DV?$stream_output_adapter@D@__crt_stdio_output@@@2@@__crt_stdio_output@@AEAA_ND@Z 0000000180030854     libucrt:output.obj
 0002:00009854       $unwind$?type_case_c_tchar@?$output_processor@DV?$stream_output_adapter@D@__crt_stdio_output@@V?$standard_base@DV?$stream_output_adapter@D@__crt_stdio_output@@@2@@__crt_stdio_output@@AEAA_ND@Z 0000000180030854     libucrt:output.obj
 0002:00009854       $unwind$?type_case_s@?$output_processor@DV?$stream_output_adapter@D@__crt_stdio_output@@V?$standard_base@DV?$stream_output_adapter@D@__crt_stdio_output@@@2@@__crt_stdio_output@@AEAA_NXZ 0000000180030854     libucrt:output.obj
 0002:00009854       $unwind$strcpy_s           0000000180030854     libucrt:strcpy_s.obj
 0002:00009854       $unwind$wcscat_s           0000000180030854     libucrt:wcscat_s.obj
 0002:00009854       $unwind$wcscpy_s           0000000180030854     libucrt:wcscpy_s.obj
 0002:00009854       $unwind$_clrfp             0000000180030854     libucrt:fpctrl.obj
 0002:00009854       $unwind$_set_statfp        0000000180030854     libucrt:fpctrl.obj
 0002:00009854       $unwind$_clearfp           0000000180030854     libucrt:ieee.obj
 0002:00009854       $unwind$fegetenv           0000000180030854     libucrt:fegetenv.obj
 0002:00009854       $unwind$feholdexcept       0000000180030854     libucrt:feholdexcept.obj
 0002:00009854       $unwind$fesetenv           0000000180030854     libucrt:fesetenv.obj
 0002:0000985c       $unwind$secp256k1_ge_is_valid_var 000000018003085c     secp256k1.obj
 0002:00009870       $chain$1$secp256k1_ge_is_valid_var 0000000180030870     secp256k1.obj
 0002:00009888       $chain$2$secp256k1_ge_is_valid_var 0000000180030888     secp256k1.obj
 0002:00009898       $unwind$secp256k1_gej_double_var 0000000180030898     secp256k1.obj
 0002:000098b0       $chain$2$secp256k1_gej_double_var 00000001800308b0     secp256k1.obj
 0002:000098cc       $chain$3$secp256k1_gej_double_var 00000001800308cc     secp256k1.obj
 0002:000098dc       $unwind$secp256k1_gej_add_var 00000001800308dc     secp256k1.obj
 0002:000098f4       $chain$3$secp256k1_gej_add_var 00000001800308f4     secp256k1.obj
 0002:00009914       $chain$4$secp256k1_gej_add_var 0000000180030914     secp256k1.obj
 0002:00009924       $unwind$secp256k1_gej_add_ge_var 0000000180030924     secp256k1.obj
 0002:00009940       $chain$2$secp256k1_gej_add_ge_var 0000000180030940     secp256k1.obj
 0002:0000995c       $chain$3$secp256k1_gej_add_ge_var 000000018003095c     secp256k1.obj
 0002:0000996c       $unwind$secp256k1_gej_add_zinv_var 000000018003096c     secp256k1.obj
 0002:00009988       $chain$1$secp256k1_gej_add_zinv_var 0000000180030988     secp256k1.obj
 0002:000099a0       $chain$2$secp256k1_gej_add_zinv_var 00000001800309a0     secp256k1.obj
 0002:000099b4       $chain$3$secp256k1_gej_add_zinv_var 00000001800309b4     secp256k1.obj
 0002:000099c4       $chain$4$secp256k1_gej_add_zinv_var 00000001800309c4     secp256k1.obj
 0002:000099d4       $unwind$secp256k1_gej_add_ge 00000001800309d4     secp256k1.obj
 0002:000099f8       $unwind$secp256k1_ge_to_storage 00000001800309f8     secp256k1.obj
 0002:00009a08       $unwind$secp256k1_ecmult_odd_multiples_table 0000000180030a08     secp256k1.obj
 0002:00009a24       $unwind$secp256k1_ecmult_odd_multiples_table_storage_var 0000000180030a24     secp256k1.obj
 0002:00009a48       $unwind$secp256k1_ecmult_wnaf 0000000180030a48     secp256k1.obj
 0002:00009a64       $chain$0$secp256k1_ecmult_wnaf 0000000180030a64     secp256k1.obj
 0002:00009a78       $unwind$secp256k1_ecmult   0000000180030a78     secp256k1.obj
 0002:00009a98       $unwind$secp256k1_sha256_write 0000000180030a98     secp256k1.obj
 0002:00009aac       $chain$0$secp256k1_sha256_write 0000000180030aac     secp256k1.obj
 0002:00009ac0       $chain$1$secp256k1_sha256_write 0000000180030ac0     secp256k1.obj
 0002:00009ad0       $unwind$secp256k1_sha256_finalize 0000000180030ad0     secp256k1.obj
 0002:00009af0       $unwind$secp256k1_hmac_sha256_initialize 0000000180030af0     secp256k1.obj
 0002:00009b20       $unwind$secp256k1_hmac_sha256_finalize 0000000180030b20     secp256k1.obj
 0002:00009b38       $chain$0$secp256k1_hmac_sha256_finalize 0000000180030b38     secp256k1.obj
 0002:00009b4c       $chain$1$secp256k1_hmac_sha256_finalize 0000000180030b4c     secp256k1.obj
 0002:00009b5c       $unwind$secp256k1_rfc6979_hmac_sha256_initialize 0000000180030b5c     secp256k1.obj
 0002:00009b78       $unwind$secp256k1_rfc6979_hmac_sha256_generate 0000000180030b78     secp256k1.obj
 0002:00009b98       $unwind$secp256k1_ecmult_gen_context_build 0000000180030b98     secp256k1.obj
 0002:00009bb0       $chain$1$secp256k1_ecmult_gen_context_build 0000000180030bb0     secp256k1.obj
 0002:00009bc8       $chain$6$secp256k1_ecmult_gen_context_build 0000000180030bc8     secp256k1.obj
 0002:00009bec       $chain$7$secp256k1_ecmult_gen_context_build 0000000180030bec     secp256k1.obj
 0002:00009c00       $chain$8$secp256k1_ecmult_gen_context_build 0000000180030c00     secp256k1.obj
 0002:00009c10       $unwind$secp256k1_ecmult_gen 0000000180030c10     secp256k1.obj
 0002:00009c30       $unwind$secp256k1_ecmult_gen_blind 0000000180030c30     secp256k1.obj
 0002:00009c58       $unwind$secp256k1_ecdsa_sig_verify 0000000180030c58     secp256k1.obj
 0002:00009c74       $unwind$secp256k1_ecdsa_sig_sign 0000000180030c74     secp256k1.obj
 0002:00009c94       $unwind$secp256k1_ec_pubkey_serialize 0000000180030c94     secp256k1.obj
 0002:00009cb0       $chain$1$secp256k1_ec_pubkey_serialize 0000000180030cb0     secp256k1.obj
 0002:00009cc8       $chain$2$secp256k1_ec_pubkey_serialize 0000000180030cc8     secp256k1.obj
 0002:00009cd8       $unwind$secp256k1_ecdsa_signature_normalize 0000000180030cd8     secp256k1.obj
 0002:00009d00       $unwind$secp256k1_ecdsa_verify 0000000180030d00     secp256k1.obj
 0002:00009d18       $chain$1$secp256k1_ecdsa_verify 0000000180030d18     secp256k1.obj
 0002:00009d30       $chain$2$secp256k1_ecdsa_verify 0000000180030d30     secp256k1.obj
 0002:00009d44       $chain$3$secp256k1_ecdsa_verify 0000000180030d44     secp256k1.obj
 0002:00009d54       $unwind$nonce_function_rfc6979 0000000180030d54     secp256k1.obj
 0002:00009d6c       $unwind$secp256k1_ecdsa_sign 0000000180030d6c     secp256k1.obj
 0002:00009d8c       $chain$0$secp256k1_ecdsa_sign 0000000180030d8c     secp256k1.obj
 0002:00009da0       $chain$1$secp256k1_ecdsa_sign 0000000180030da0     secp256k1.obj
 0002:00009db0       $chain$2$secp256k1_ecdsa_sign 0000000180030db0     secp256k1.obj
 0002:00009dc4       $unwind$secp256k1_ec_privkey_negate 0000000180030dc4     secp256k1.obj
 0002:00009de8       $unwind$secp256k1_ec_privkey_tweak_add 0000000180030de8     secp256k1.obj
 0002:00009dfc       $unwind$secp256k1_ec_pubkey_tweak_add 0000000180030dfc     secp256k1.obj
 0002:00009e18       $chain$0$secp256k1_ec_pubkey_tweak_add 0000000180030e18     secp256k1.obj
 0002:00009e2c       $chain$1$secp256k1_ec_pubkey_tweak_add 0000000180030e2c     secp256k1.obj
 0002:00009e3c       $unwind$secp256k1_ec_pubkey_tweak_mul 0000000180030e3c     secp256k1.obj
 0002:00009e58       $chain$0$secp256k1_ec_pubkey_tweak_mul 0000000180030e58     secp256k1.obj
 0002:00009e6c       $chain$1$secp256k1_ec_pubkey_tweak_mul 0000000180030e6c     secp256k1.obj
 0002:00009e7c       $unwind$secp256k1_ec_pubkey_combine 0000000180030e7c     secp256k1.obj
 0002:00009e94       $chain$1$secp256k1_ec_pubkey_combine 0000000180030e94     secp256k1.obj
 0002:00009eac       $chain$2$secp256k1_ec_pubkey_combine 0000000180030eac     secp256k1.obj
 0002:00009ec0       $chain$3$secp256k1_ec_pubkey_combine 0000000180030ec0     secp256k1.obj
 0002:00009ed0       xdata                      0000000180030ed0     node:node.exe
 0002:00009ed8       $xdatasym                  0000000180030ed8     LIBCMT:amdsecgs.obj
 0002:00009edc       $unwind$?dllmain_crt_process_attach@@YAHQEAUHINSTANCE__@@QEAX@Z 0000000180030edc     LIBCMT:dll_dllmain.obj
 0002:00009f18       $unwind$?fin$0@?0??dllmain_crt_process_attach@@YAHQEAUHINSTANCE__@@QEAX@Z@4HA 0000000180030f18     LIBCMT:dll_dllmain.obj
 0002:00009f18       $unwind$?fin$0@?0??dllmain_crt_process_detach@@YAH_N@Z@4HA 0000000180030f18     LIBCMT:dll_dllmain.obj
 0002:00009f18       $unwind$_IsNonwritableInCurrentImage$filt$0 0000000180030f18     LIBCMT:pesect.obj
 0002:00009f18       $unwind$_query_new_handler$fin$0 0000000180030f18     libucrt:new_handler.obj
 0002:00009f18       $unwind$?fin$0@?0???$?RV<lambda_0ae27a3a962d80f24befdcbee591983d>@@AEAV<lambda_8d0ee55de4b1038c4002e0adecdf1839>@@V<lambda_dc504788e8f1664fe9b84e20bfb512f2>@@@?$__crt_seh_guarded_call@X@@QEAAX$$QEAV<lambda_0ae27a3a962d80f24befdcbee591983d>@@AEAV<lambda_8d0ee55de4b1038c4002e0adecdf1839>@@$$QEAV<lambda_dc504788e8f1664fe9b84e20bfb512f2>@@@Z@4HA 0000000180030f18     libucrt:per_thread_data.obj
 0002:00009f18       $unwind$?fin$0@?0???$?RV<lambda_2d41944a1d46af3157314b8a01080d33>@@AEAV<lambda_8f455de75cd7d7f24b4096f044d8b9e6>@@V<lambda_aa500f224e6afead328df44964fe2772>@@@?$__crt_seh_guarded_call@X@@QEAAX$$QEAV<lambda_2d41944a1d46af3157314b8a01080d33>@@AEAV<lambda_8f455de75cd7d7f24b4096f044d8b9e6>@@$$QEAV<lambda_aa500f224e6afead328df44964fe2772>@@@Z@4HA 0000000180030f18     libucrt:per_thread_data.obj
 0002:00009f18       $unwind$?fin$0@?0???$?RV<lambda_aa87e3671a710a21b5dc78c0bdf72e11>@@AEAV<lambda_92619d2358a28f41a33ba319515a20b9>@@V<lambda_6992ecaafeb10aed2b74cb1fae11a551>@@@?$__crt_seh_guarded_call@X@@QEAAX$$QEAV<lambda_aa87e3671a710a21b5dc78c0bdf72e11>@@AEAV<lambda_92619d2358a28f41a33ba319515a20b9>@@$$QEAV<lambda_6992ecaafeb10aed2b74cb1fae11a551>@@@Z@4HA 0000000180030f18     libucrt:per_thread_data.obj
 0002:00009f18       $unwind$?fin$0@?0???$?RV<lambda_f2e299630e499de9f9a165e60fcd3db5>@@AEAV<lambda_2ae9d31cdba2644fcbeaf08da7c24588>@@V<lambda_40d01ff24d0e7b3814fdbdcee8eab3c7>@@@?$__crt_seh_guarded_call@X@@QEAAX$$QEAV<lambda_f2e299630e499de9f9a165e60fcd3db5>@@AEAV<lambda_2ae9d31cdba2644fcbeaf08da7c24588>@@$$QEAV<lambda_40d01ff24d0e7b3814fdbdcee8eab3c7>@@@Z@4HA 0000000180030f18     libucrt:per_thread_data.obj
 0002:00009f18       $unwind$__acrt_update_thread_locale_data$fin$0 0000000180030f18     libucrt:locale_refcounting.obj
 0002:00009f18       $unwind$?fin$0@?0???$?RV<lambda_410d79af7f07d98d83a3f525b3859a53>@@AEAV<lambda_3e16ef9562a7dcce91392c22ab16ea36>@@V<lambda_38119f0e861e05405d8a144b9b982f0a>@@@?$__crt_seh_guarded_call@X@@QEAAX$$QEAV<lambda_410d79af7f07d98d83a3f525b3859a53>@@AEAV<lambda_3e16ef9562a7dcce91392c22ab16ea36>@@$$QEAV<lambda_38119f0e861e05405d8a144b9b982f0a>@@@Z@4HA 0000000180030f18     libucrt:wsetlocale.obj
 0002:00009f18       $unwind$?fin$0@?0???$?RV<lambda_751a882b2c74d4b022dec766aa51a29a>@@AEAV<lambda_628dfdc04ba53c8bfc02c9951375f3f5>@@V<lambda_f6c7be5f7998530c34de24c7437d6b54>@@@?$__crt_seh_guarded_call@H@@QEAAH$$QEAV<lambda_751a882b2c74d4b022dec766aa51a29a>@@AEAV<lambda_628dfdc04ba53c8bfc02c9951375f3f5>@@$$QEAV<lambda_f6c7be5f7998530c34de24c7437d6b54>@@@Z@4HA 0000000180030f18     libucrt:close.obj
 0002:00009f18       $unwind$?fin$0@?0???$?RV<lambda_a37b2b86f63e897a80ea819b0eb08c01>@@AEAV<lambda_38ce7e780aa69e748d6df282ebc68efe>@@V<lambda_99fb1378e971ab6e7edea83e3a7a83a2>@@@?$__crt_seh_guarded_call@H@@QEAAH$$QEAV<lambda_a37b2b86f63e897a80ea819b0eb08c01>@@AEAV<lambda_38ce7e780aa69e748d6df282ebc68efe>@@$$QEAV<lambda_99fb1378e971ab6e7edea83e3a7a83a2>@@@Z@4HA 0000000180030f18     libucrt:commit.obj
 0002:00009f18       $unwind$__acrt_initialize_lowio$fin$0 0000000180030f18     libucrt:ioinit.obj
 0002:00009f18       $unwind$?fin$0@?0???$common_lseek@_J@@YA_JH_JH@Z@4HA 0000000180030f18     libucrt:lseek.obj
 0002:00009f18       $unwind$__acrt_lowio_ensure_fh_exists$fin$0 0000000180030f18     libucrt:osfinfo.obj
 0002:00009f18       $unwind$_write$fin$0       0000000180030f18     libucrt:write.obj
 0002:00009f18       $unwind$?fin$0@?0???$?RV<lambda_efdfa57d1f175319df784efa44bb7b81>@@AEAV<lambda_5f0a4c1567f8adc6734073e5d1e1b35c>@@V<lambda_2e8a7d3640ea6ccb4c2413664c2db6fd>@@@?$__crt_seh_guarded_call@X@@QEAAX$$QEAV<lambda_efdfa57d1f175319df784efa44bb7b81>@@AEAV<lambda_5f0a4c1567f8adc6734073e5d1e1b35c>@@$$QEAV<lambda_2e8a7d3640ea6ccb4c2413664c2db6fd>@@@Z@4HA 0000000180030f18     libucrt:mbctype.obj
 0002:00009f18       $unwind$?fin$0@?0??update_thread_multibyte_data_internal@@YAPEAU__crt_multibyte_data@@QEAU__acrt_ptd@@QEAPEAU1@@Z@4HA 0000000180030f18     libucrt:mbctype.obj
 0002:00009f18       $unwind$?fin$0@?0???$?RV<lambda_450d765d439847d4c735a33c368b5fc0>@@AEAV<lambda_44731a7d0e6d81c3e6aa82d741081786>@@V<lambda_601a2a7da3b7a96e9554ac7215c4b07c>@@@?$__crt_seh_guarded_call@P6AXH@Z@@QEAAP6AXH@Z$$QEAV<lambda_450d765d439847d4c735a33c368b5fc0>@@AEAV<lambda_44731a7d0e6d81c3e6aa82d741081786>@@$$QEAV<lambda_601a2a7da3b7a96e9554ac7215c4b07c>@@@Z@4HA 0000000180030f18     libucrt:signal.obj
 0002:00009f18       $unwind$raise$fin$0        0000000180030f18     libucrt:signal.obj
 0002:00009f18       $unwind$?filt$0@?0???R<lambda_6e4b09c48022b2350581041d5f6b0c4c>@@QEBA@XZ@4HA 0000000180030f18     libucrt:exit.obj
 0002:00009f18       $unwind$?fin$0@?0???$?RV<lambda_d80eeec6fff315bfe5c115232f3240e3>@@AEAV<lambda_6e4b09c48022b2350581041d5f6b0c4c>@@V<lambda_2358e3775559c9db80273638284d5e45>@@@?$__crt_seh_guarded_call@X@@QEAAX$$QEAV<lambda_d80eeec6fff315bfe5c115232f3240e3>@@AEAV<lambda_6e4b09c48022b2350581041d5f6b0c4c>@@$$QEAV<lambda_2358e3775559c9db80273638284d5e45>@@@Z@4HA 0000000180030f18     libucrt:exit.obj
 0002:00009f18       $unwind$?fin$0@?0???$?RV<lambda_7777bce6b2f8c936911f934f8298dc43>@@AEAV<lambda_f03950bc5685219e0bcd2087efbe011e>@@V<lambda_3883c3dff614d5e0c5f61bb1ac94921c>@@@?$__crt_seh_guarded_call@H@@QEAAH$$QEAV<lambda_7777bce6b2f8c936911f934f8298dc43>@@AEAV<lambda_f03950bc5685219e0bcd2087efbe011e>@@$$QEAV<lambda_3883c3dff614d5e0c5f61bb1ac94921c>@@@Z@4HA 0000000180030f18     libucrt:onexit.obj
 0002:00009f18       $unwind$_fcloseall$fin$0   0000000180030f18     libucrt:closeall.obj
 0002:00009f18       $unwind$fclose$fin$0       0000000180030f18     libucrt:fclose.obj
 0002:00009f18       $unwind$?fin$0@?0???$?RV<lambda_842d9ff0dc9ef11c61343bbaebe7f885>@@AEAV<lambda_c5860995281e5c4ce005b3de8f5874ee>@@V<lambda_d90129c13df834fdcbf8d2b88dafcf2d>@@@?$__crt_seh_guarded_call@X@@QEAAX$$QEAV<lambda_842d9ff0dc9ef11c61343bbaebe7f885>@@AEAV<lambda_c5860995281e5c4ce005b3de8f5874ee>@@$$QEAV<lambda_d90129c13df834fdcbf8d2b88dafcf2d>@@@Z@4HA 0000000180030f18     libucrt:fflush.obj
 0002:00009f18       $unwind$?fin$0@?0???$?RV<lambda_886d6c58226a84441f68b9f2b8217b83>@@AEAV<lambda_ab61a845afdef5b7c387490eaf3616ee>@@V<lambda_f7f22ab5edc0698d5f6905b0d3f44752>@@@?$__crt_seh_guarded_call@X@@QEAAX$$QEAV<lambda_886d6c58226a84441f68b9f2b8217b83>@@AEAV<lambda_ab61a845afdef5b7c387490eaf3616ee>@@$$QEAV<lambda_f7f22ab5edc0698d5f6905b0d3f44752>@@@Z@4HA 0000000180030f18     libucrt:fflush.obj
 0002:00009f18       $unwind$?fin$0@?0???$?RV<lambda_c376a267cfb53b6959b3b692ec76b120>@@AEAV<lambda_9a32fed5bf61b6b509b2d3f6003082a1>@@V<lambda_572fbb9fa0ab338edf41edfd4b5fcc8d>@@@?$__crt_seh_guarded_call@H@@QEAAH$$QEAV<lambda_c376a267cfb53b6959b3b692ec76b120>@@AEAV<lambda_9a32fed5bf61b6b509b2d3f6003082a1>@@$$QEAV<lambda_572fbb9fa0ab338edf41edfd4b5fcc8d>@@@Z@4HA 0000000180030f18     libucrt:fflush.obj
 0002:00009f18       $unwind$?fin$0@?0???$?RV<lambda_676bd5779251ec186b530f0a904b4b35>@@AEAV<lambda_b579ea784fd840951dfbcbdaebf709fd>@@V<lambda_10027885da78ada7fb00668d7e2e96b5>@@@?$__crt_seh_guarded_call@H@@QEAAH$$QEAV<lambda_676bd5779251ec186b530f0a904b4b35>@@AEAV<lambda_b579ea784fd840951dfbcbdaebf709fd>@@$$QEAV<lambda_10027885da78ada7fb00668d7e2e96b5>@@@Z@4HA 0000000180030f18     libucrt:output.obj
 0002:00009f18       $unwind$?fin$0@?0???$?RV<lambda_fe5404e9642edbb7c8ae71e1dcfa4018>@@AEAV<lambda_36eeb330e99a4f0bf8a7da86d0894cb9>@@V<lambda_2fa474834de80dc12f7a3c6eddd7a366>@@@?$__crt_seh_guarded_call@H@@QEAAH$$QEAV<lambda_fe5404e9642edbb7c8ae71e1dcfa4018>@@AEAV<lambda_36eeb330e99a4f0bf8a7da86d0894cb9>@@$$QEAV<lambda_2fa474834de80dc12f7a3c6eddd7a366>@@@Z@4HA 0000000180030f18     libucrt:output.obj
 0002:00009f18       $unwind$?fin$0@?0???$?RV<lambda_84ec643ea9557e2f7dc01bb0e9624395>@@AEAV<lambda_ca71763b3c0644891230e4f79ea54fa6>@@V<lambda_439a761618c59b0600e24586724d733b>@@@?$__crt_seh_guarded_call@H@@QEAAH$$QEAV<lambda_84ec643ea9557e2f7dc01bb0e9624395>@@AEAV<lambda_ca71763b3c0644891230e4f79ea54fa6>@@$$QEAV<lambda_439a761618c59b0600e24586724d733b>@@@Z@4HA 0000000180030f18     libucrt:setvbuf.obj
 0002:00009f18       $unwind$_ctrlfp$filt$0     0000000180030f18     libucrt:fpctrl.obj
 0002:00009f20       $unwind$?dllmain_crt_process_detach@@YAH_N@Z 0000000180030f20     LIBCMT:dll_dllmain.obj
 0002:00009f54       $unwind$?dllmain_dispatch@@YAHQEAUHINSTANCE__@@KQEAX@Z 0000000180030f54     LIBCMT:dll_dllmain.obj
 0002:00009f7c       $unwind$?filt$0@?0??dllmain_dispatch@@YAHQEAUHINSTANCE__@@KQEAX@Z@4HA 0000000180030f7c     LIBCMT:dll_dllmain.obj
 0002:00009f84       $unwind$_DllMainCRTStartup 0000000180030f84     LIBCMT:dll_dllmain.obj
 0002:00009f84       $unwind$__vcrt_getptd_noexit 0000000180030f84     libvcruntime:per_thread_data.obj
 0002:00009f84       $unwind$__vcrt_InitializeCriticalSectionEx 0000000180030f84     libvcruntime:winapi_downlevel.obj
 0002:00009f84       $unwind$memcpy_s           0000000180030f84     libucrt:cfout.obj
 0002:00009f84       $unwind$__acrt_getptd      0000000180030f84     libucrt:per_thread_data.obj
 0002:00009f84       $unwind$__acrt_getptd_noexit 0000000180030f84     libucrt:per_thread_data.obj
 0002:00009f84       $unwind$__acrt_execute_initializers 0000000180030f84     libucrt:shared_initialization.obj
 0002:00009f84       $unwind$__acrt_InitializeCriticalSectionEx 0000000180030f84     libucrt:winapi_thunks.obj
 0002:00009f84       $unwind$?free_crt_array_internal@@YAXQEAPEBX_K@Z 0000000180030f84     libucrt:inittime.obj
 0002:00009f84       $unwind$??$common_lseek_nolock@_J@@YA_JH_JH@Z 0000000180030f84     libucrt:lseek.obj
 0002:00009f84       $unwind$__acrt_stdio_flush_and_write_narrow_nolock 0000000180030f84     libucrt:_flsbuf.obj
 0002:00009f84       $unwind$__acrt_stdio_flush_and_write_wide_nolock 0000000180030f84     libucrt:_flsbuf.obj
 0002:00009f84       $unwind$__acrt_stdio_flush_nolock 0000000180030f84     libucrt:fflush.obj
 0002:00009f84       $unwind$??0_LocaleUpdate@@QEAA@QEAU__crt_locale_pointers@@@Z 0000000180030f84     libucrt:output.obj
 0002:00009f84       $unwind$?type_case_Z@?$output_processor@_WV?$stream_output_adapter@_W@__crt_stdio_output@@V?$standard_base@_WV?$stream_output_adapter@_W@__crt_stdio_output@@@2@@__crt_stdio_output@@AEAA_NXZ 0000000180030f84     libucrt:output.obj
 0002:00009f84       $unwind$?type_case_Z@?$output_processor@_WV?$string_output_adapter@_W@__crt_stdio_output@@V?$standard_base@_WV?$string_output_adapter@_W@__crt_stdio_output@@@2@@__crt_stdio_output@@AEAA_NXZ 0000000180030f84     libucrt:output.obj
 0002:00009f84       $unwind$?type_case_n@?$output_processor@DV?$stream_output_adapter@D@__crt_stdio_output@@V?$standard_base@DV?$stream_output_adapter@D@__crt_stdio_output@@@2@@__crt_stdio_output@@AEAA_NXZ 0000000180030f84     libucrt:output.obj
 0002:00009f84       $unwind$?type_case_n@?$output_processor@_WV?$stream_output_adapter@_W@__crt_stdio_output@@V?$standard_base@_WV?$stream_output_adapter@_W@__crt_stdio_output@@@2@@__crt_stdio_output@@AEAA_NXZ 0000000180030f84     libucrt:output.obj
 0002:00009f84       $unwind$?type_case_n@?$output_processor@_WV?$string_output_adapter@_W@__crt_stdio_output@@V?$standard_base@_WV?$string_output_adapter@_W@__crt_stdio_output@@@2@@__crt_stdio_output@@AEAA_NXZ 0000000180030f84     libucrt:output.obj
 0002:00009f84       $unwind$?type_case_s@?$output_processor@_WV?$stream_output_adapter@_W@__crt_stdio_output@@V?$standard_base@_WV?$stream_output_adapter@_W@__crt_stdio_output@@@2@@__crt_stdio_output@@AEAA_NXZ 0000000180030f84     libucrt:output.obj
 0002:00009f84       $unwind$?type_case_s@?$output_processor@_WV?$string_output_adapter@_W@__crt_stdio_output@@V?$standard_base@_WV?$string_output_adapter@_W@__crt_stdio_output@@@2@@__crt_stdio_output@@AEAA_NXZ 0000000180030f84     libucrt:output.obj
 0002:00009f84       $unwind$??R<lambda_ca71763b3c0644891230e4f79ea54fa6>@@QEBAHXZ 0000000180030f84     libucrt:setvbuf.obj
 0002:00009f84       $unwind$_exception_enabled 0000000180030f84     libucrt:libm_error.obj
 0002:00009f94       $unwind$__report_securityfailure 0000000180030f94     LIBCMT:gs_report.obj
 0002:00009f9c       $unwind$__report_gsfailure 0000000180030f9c     LIBCMT:gs_report.obj
 0002:00009fa4       $unwind$capture_current_context 0000000180030fa4     LIBCMT:gs_report.obj
 0002:00009fb0       $unwind$capture_previous_context 0000000180030fb0     LIBCMT:gs_report.obj
 0002:00009fbc       $unwind$__security_init_cookie 0000000180030fbc     LIBCMT:gs_support.obj
 0002:00009fc8       $unwind$__scrt_is_nonwritable_in_current_image 0000000180030fc8     LIBCMT:utility.obj
 0002:00009fe8       $unwind$__scrt_is_nonwritable_in_current_image$filt$0 0000000180030fe8     LIBCMT:utility.obj
 0002:00009ff0       $unwind$__scrt_dllmain_exception_filter 0000000180030ff0     LIBCMT:utility.obj
 0002:00009ff0       $unwind$_ischartype_l      0000000180030ff0     libucrt:atox.obj
 0002:00009ff0       $unwind$_recalloc_base     0000000180030ff0     libucrt:recalloc.obj
 0002:00009ff0       $unwind$__acrt_free_locale 0000000180030ff0     libucrt:locale_refcounting.obj
 0002:00009ff0       $unwind$__acrt_lowio_create_handle_array 0000000180030ff0     libucrt:osfinfo.obj
 0002:00009ff0       $unwind$?setSBCS@@YAXPEAU__crt_multibyte_data@@@Z 0000000180030ff0     libucrt:mbctype.obj
 0002:00009ff0       $unwind$__acrt_show_wide_message_box 0000000180030ff0     libucrt:crtmbox.obj
 0002:00009ff0       $unwind$_seh_filter_exe    0000000180030ff0     libucrt:exception_filter.obj
 0002:00009ff0       $unwind$_wassert           0000000180030ff0     libucrt:assert.obj
 0002:00009ff0       $unwind$_initterm          0000000180030ff0     libucrt:initterm.obj
 0002:00009ff0       $unwind$??$ensure_buffer_is_big_enough@D@formatting_buffer@__crt_stdio_output@@QEAA_N_K@Z 0000000180030ff0     libucrt:output.obj
 0002:00009ff0       $unwind$??$ensure_buffer_is_big_enough@_W@formatting_buffer@__crt_stdio_output@@QEAA_N_K@Z 0000000180030ff0     libucrt:output.obj
 0002:0000a004       $unwind$__scrt_fastfail    0000000180031004     LIBCMT:utility_desktop.obj
 0002:0000a014       $unwind$?DloadGetSRWLockFunctionPointers@@YAEXZ 0000000180031014     DelayImp:delayhlp.obj
 0002:0000a014       $unwind$_RTC_Initialize    0000000180031014     LIBCMT:initsect.obj
 0002:0000a014       $unwind$_RTC_Terminate     0000000180031014     LIBCMT:initsect.obj
 0002:0000a014       $unwind$__vcrt_FlsSetValue 0000000180031014     libvcruntime:winapi_downlevel.obj
 0002:0000a014       $unwind$??$common_initialize_environment_nolock@D@@YAHXZ 0000000180031014     libucrt:environment_initialization.obj
 0002:0000a014       $unwind$__acrt_fp_strflt_to_string 0000000180031014     libucrt:_fptostr.obj
 0002:0000a014       $unwind$_realloc_base      0000000180031014     libucrt:realloc_base.obj
 0002:0000a014       $unwind$?replace_current_thread_locale_nolock@@YAXQEAU__acrt_ptd@@QEAU__crt_locale_data@@@Z 0000000180031014     libucrt:per_thread_data.obj
 0002:0000a014       $unwind$__acrt_execute_uninitializers 0000000180031014     libucrt:shared_initialization.obj
 0002:0000a014       $unwind$__acrt_FlsSetValue 0000000180031014     libucrt:winapi_thunks.obj
 0002:0000a014       $unwind$__acrt_LocaleNameToLCID 0000000180031014     libucrt:winapi_thunks.obj
 0002:0000a014       $unwind$__acrt_can_show_message_box 0000000180031014     libucrt:winapi_thunks.obj
 0002:0000a014       $unwind$_updatetlocinfoEx_nolock 0000000180031014     libucrt:locale_refcounting.obj
 0002:0000a014       $unwind$_close_nolock      0000000180031014     libucrt:close.obj
 0002:0000a014       $unwind$__acrt_uninitialize_lowio 0000000180031014     libucrt:ioinit.obj
 0002:0000a014       $unwind$__acrt_errno_map_os_error 0000000180031014     libucrt:errno.obj
 0002:0000a014       $unwind$_initterm_e        0000000180031014     libucrt:initterm.obj
 0002:0000a014       $unwind$__acrt_stdio_allocate_buffer_nolock 0000000180031014     libucrt:_getbuf.obj
 0002:0000a014       $unwind$__acrt_stdio_begin_temporary_buffering_nolock 0000000180031014     libucrt:_sftbuf.obj
 0002:0000a014       $unwind$_fclose_nolock     0000000180031014     libucrt:fclose.obj
 0002:0000a014       $unwind$strncpy_s          0000000180031014     libucrt:strncpy_s.obj
 0002:0000a014       $unwind$wcsncat_s          0000000180031014     libucrt:wcsncat_s.obj
 0002:0000a020       $unwind$__isa_available_init 0000000180031020     LIBCMT:cpu_disp.obj
 0002:0000a030       $xdatasym                  0000000180031030     LIBCMT:guard_dispatch.obj
 0002:0000a034       $unwind$__C_specific_handler 0000000180031034     libvcruntime:riscchandler.obj
 0002:0000a050       $unwind$__DestructExceptionObject 0000000180031050     libvcruntime:ehhelpers.obj
 0002:0000a070       $unwind$__DestructExceptionObject$filt$0 0000000180031070     libvcruntime:ehhelpers.obj
 0002:0000a080       $xdatasym                  0000000180031080     libvcruntime:memset.obj
 0002:0000a090       $xdatasym                  0000000180031090     libvcruntime:notify.obj
 0002:0000a0a0       $xdatasym                  00000001800310a0     libvcruntime:memcpy.obj
 0002:0000a0b0       $unwind$?try_get_function@@YAPEAXW4function_id@?A0x87d18907@@QEBDQEBW4module_id@2@2@Z 00000001800310b0     libvcruntime:winapi_downlevel.obj
 0002:0000a0b0       $unwind$?try_get_function@@YAPEAXW4function_id@?A0x391cf84c@@QEBDQEBW4module_id@2@2@Z 00000001800310b0     libucrt:winapi_thunks.obj
 0002:0000a0d0       $xdatasym                  00000001800310d0     libvcruntime:handlers.obj
 0002:0000a0f0       $unwind$swprintf           00000001800310f0     libucrt:assert.obj
 0002:0000a100       $unwind$??$common_assert_to_stderr@_W@@YAXQEB_W0I@Z 0000000180031100     libucrt:assert.obj
 0002:0000a11c       $unwind$??$common_assert_to_message_box@_W@@YAXQEB_W0IQEAX@Z 000000018003111c     libucrt:assert.obj
 0002:0000a138       $unwind$??$common_assert_to_message_box_build_string@_W@@YAXQEA_W_KQEB_W2IQEAX@Z 0000000180031138     libucrt:assert.obj
 0002:0000a158       $unwind$?initialize_stdio_handles_nolock@@YAXXZ 0000000180031158     libucrt:ioinit.obj
 0002:0000a158       $unwind$__acrt_initialize_stdio 0000000180031158     libucrt:_file.obj
 0002:0000a170       $unwind$__stdio_common_vfprintf 0000000180031170     libucrt:output.obj
 0002:0000a170       $unwind$__stdio_common_vfwprintf 0000000180031170     libucrt:output.obj
 0002:0000a178       $unwind$??$common_vsprintf@Vstandard_base@__crt_stdio_output@@_W@@YAH_KQEA_W0QEB_WQEAU__crt_locale_pointers@@QEAD@Z 0000000180031178     libucrt:output.obj
 0002:0000a198       $unwind$??$parse_command_line@D@@YAXPEADPEAPEAD0PEA_K2@Z 0000000180031198     libucrt:argv_parsing.obj
 0002:0000a198       $unwind$?write_string_impl@?$output_adapter_common@DV?$stream_output_adapter@D@__crt_stdio_output@@@__crt_stdio_output@@IEBAXQEBDHQEAHAEAV__crt_deferred_errno_cache@@@Z 0000000180031198     libucrt:output.obj
 0002:0000a198       $unwind$?write_string_impl@?$output_adapter_common@_WV?$stream_output_adapter@_W@__crt_stdio_output@@@__crt_stdio_output@@IEBAXQEB_WHQEAHAEAV__crt_deferred_errno_cache@@@Z 0000000180031198     libucrt:output.obj
 0002:0000a1b4       $unwind$?process@?$output_processor@DV?$stream_output_adapter@D@__crt_stdio_output@@V?$standard_base@DV?$stream_output_adapter@D@__crt_stdio_output@@@2@@__crt_stdio_output@@QEAAHXZ 00000001800311b4     libucrt:output.obj
 0002:0000a1c4       $unwind$?parse_int_from_format_string@?$output_processor@DV?$stream_output_adapter@D@__crt_stdio_output@@V?$standard_base@DV?$stream_output_adapter@D@__crt_stdio_output@@@2@@__crt_stdio_output@@AEAA_NQEAH@Z 00000001800311c4     libucrt:output.obj
 0002:0000a1c4       $unwind$?process@?$output_processor@_WV?$stream_output_adapter@_W@__crt_stdio_output@@V?$standard_base@_WV?$stream_output_adapter@_W@__crt_stdio_output@@@2@@__crt_stdio_output@@QEAAHXZ 00000001800311c4     libucrt:output.obj
 0002:0000a1c4       $unwind$?process@?$output_processor@_WV?$string_output_adapter@_W@__crt_stdio_output@@V?$standard_base@_WV?$string_output_adapter@_W@__crt_stdio_output@@@2@@__crt_stdio_output@@QEAAHXZ 00000001800311c4     libucrt:output.obj
 0002:0000a1d8       $unwind$?state_case_type@?$output_processor@DV?$stream_output_adapter@D@__crt_stdio_output@@V?$standard_base@DV?$stream_output_adapter@D@__crt_stdio_output@@@2@@__crt_stdio_output@@AEAA_NXZ 00000001800311d8     libucrt:output.obj
 0002:0000a1f0       $unwind$?type_case_a@?$output_processor@DV?$stream_output_adapter@D@__crt_stdio_output@@V?$standard_base@DV?$stream_output_adapter@D@__crt_stdio_output@@@2@@__crt_stdio_output@@AEAA_NXZ 00000001800311f0     libucrt:output.obj
 0002:0000a1fc       $unwind$??$common_xtox@K_W@@YAHKQEA_W_KI_N@Z 00000001800311fc     libucrt:xtoa.obj
 0002:0000a1fc       $unwind$__acrt_DownlevelLocaleNameToLCID 00000001800311fc     libucrt:lcidtoname_downlevel.obj
 0002:0000a1fc       $unwind$??R<lambda_f03950bc5685219e0bcd2087efbe011e>@@QEBAHXZ 00000001800311fc     libucrt:onexit.obj
 0002:0000a1fc       $unwind$?type_case_integer@?$output_processor@DV?$stream_output_adapter@D@__crt_stdio_output@@V?$standard_base@DV?$stream_output_adapter@D@__crt_stdio_output@@@2@@__crt_stdio_output@@AEAA_NI_N@Z 00000001800311fc     libucrt:output.obj
 0002:0000a1fc       $unwind$?type_case_integer@?$output_processor@_WV?$stream_output_adapter@_W@__crt_stdio_output@@V?$standard_base@_WV?$stream_output_adapter@_W@__crt_stdio_output@@@2@@__crt_stdio_output@@AEAA_NI_N@Z 00000001800311fc     libucrt:output.obj
 0002:0000a1fc       $unwind$?type_case_integer@?$output_processor@_WV?$string_output_adapter@_W@__crt_stdio_output@@V?$standard_base@_WV?$string_output_adapter@_W@__crt_stdio_output@@@2@@__crt_stdio_output@@AEAA_NI_N@Z 00000001800311fc     libucrt:output.obj
 0002:0000a214       $unwind$?write_stored_string_tchar@?$output_processor@DV?$stream_output_adapter@D@__crt_stdio_output@@V?$standard_base@DV?$stream_output_adapter@D@__crt_stdio_output@@@2@@__crt_stdio_output@@AEAA_ND@Z 0000000180031214     libucrt:output.obj
 0002:0000a22c       $unwind$??R<lambda_36eeb330e99a4f0bf8a7da86d0894cb9>@@QEBAHXZ 000000018003122c     libucrt:output.obj
 0002:0000a22c       $unwind$??R<lambda_b579ea784fd840951dfbcbdaebf709fd>@@QEBAHXZ 000000018003122c     libucrt:output.obj
 0002:0000a24c       $unwind$?parse_int_from_format_string@?$output_processor@_WV?$stream_output_adapter@_W@__crt_stdio_output@@V?$standard_base@_WV?$stream_output_adapter@_W@__crt_stdio_output@@@2@@__crt_stdio_output@@AEAA_NQEAH@Z 000000018003124c     libucrt:output.obj
 0002:0000a24c       $unwind$?parse_int_from_format_string@?$output_processor@_WV?$string_output_adapter@_W@__crt_stdio_output@@V?$standard_base@_WV?$string_output_adapter@_W@__crt_stdio_output@@@2@@__crt_stdio_output@@AEAA_NQEAH@Z 000000018003124c     libucrt:output.obj
 0002:0000a260       $unwind$?state_case_type@?$output_processor@_WV?$stream_output_adapter@_W@__crt_stdio_output@@V?$standard_base@_WV?$stream_output_adapter@_W@__crt_stdio_output@@@2@@__crt_stdio_output@@AEAA_NXZ 0000000180031260     libucrt:output.obj
 0002:0000a280       $unwind$?type_case_c_tchar@?$output_processor@_WV?$stream_output_adapter@_W@__crt_stdio_output@@V?$standard_base@_WV?$stream_output_adapter@_W@__crt_stdio_output@@@2@@__crt_stdio_output@@AEAA_N_W@Z 0000000180031280     libucrt:output.obj
 0002:0000a280       $unwind$?type_case_c_tchar@?$output_processor@_WV?$string_output_adapter@_W@__crt_stdio_output@@V?$standard_base@_WV?$string_output_adapter@_W@__crt_stdio_output@@@2@@__crt_stdio_output@@AEAA_N_W@Z 0000000180031280     libucrt:output.obj
 0002:0000a290       $unwind$?type_case_a@?$output_processor@_WV?$stream_output_adapter@_W@__crt_stdio_output@@V?$standard_base@_WV?$stream_output_adapter@_W@__crt_stdio_output@@@2@@__crt_stdio_output@@AEAA_NXZ 0000000180031290     libucrt:output.obj
 0002:0000a290       $unwind$?type_case_a@?$output_processor@_WV?$string_output_adapter@_W@__crt_stdio_output@@V?$standard_base@_WV?$string_output_adapter@_W@__crt_stdio_output@@@2@@__crt_stdio_output@@AEAA_NXZ 0000000180031290     libucrt:output.obj
 0002:0000a2a0       $unwind$?write_stored_string_tchar@?$output_processor@_WV?$stream_output_adapter@_W@__crt_stdio_output@@V?$standard_base@_WV?$stream_output_adapter@_W@__crt_stdio_output@@@2@@__crt_stdio_output@@AEAA_N_W@Z 00000001800312a0     libucrt:output.obj
 0002:0000a2b4       $unwind$?write_string@?$string_output_adapter@_W@__crt_stdio_output@@QEBAXQEB_WHQEAHAEAV__crt_deferred_errno_cache@@@Z 00000001800312b4     libucrt:output.obj
 0002:0000a2cc       $unwind$?state_case_type@?$output_processor@_WV?$string_output_adapter@_W@__crt_stdio_output@@V?$standard_base@_WV?$string_output_adapter@_W@__crt_stdio_output@@@2@@__crt_stdio_output@@AEAA_NXZ 00000001800312cc     libucrt:output.obj
 0002:0000a2f0       $unwind$?write_stored_string_tchar@?$output_processor@_WV?$string_output_adapter@_W@__crt_stdio_output@@V?$standard_base@_WV?$string_output_adapter@_W@__crt_stdio_output@@@2@@__crt_stdio_output@@AEAA_N_W@Z 00000001800312f0     libucrt:output.obj
 0002:0000a304       $unwind$??$write_multiple_characters@V?$string_output_adapter@_W@__crt_stdio_output@@D@__crt_stdio_output@@YAXAEBV?$string_output_adapter@_W@0@DHQEAH@Z 0000000180031304     libucrt:output.obj
 0002:0000a310       $unwind$??$write_multiple_characters@V?$stream_output_adapter@D@__crt_stdio_output@@D@__crt_stdio_output@@YAXAEBV?$stream_output_adapter@D@0@DHQEAH@Z 0000000180031310     libucrt:output.obj
 0002:0000a310       $unwind$??$write_multiple_characters@V?$stream_output_adapter@_W@__crt_stdio_output@@D@__crt_stdio_output@@YAXAEBV?$stream_output_adapter@_W@0@DHQEAH@Z 0000000180031310     libucrt:output.obj
 0002:0000a328       $unwind$??$type_case_integer_parse_into_buffer@I@?$output_processor@DV?$stream_output_adapter@D@__crt_stdio_output@@V?$standard_base@DV?$stream_output_adapter@D@__crt_stdio_output@@@2@@__crt_stdio_output@@AEAAXII_N@Z 0000000180031328     libucrt:output.obj
 0002:0000a328       $unwind$??$type_case_integer_parse_into_buffer@I@?$output_processor@_WV?$stream_output_adapter@_W@__crt_stdio_output@@V?$standard_base@_WV?$stream_output_adapter@_W@__crt_stdio_output@@@2@@__crt_stdio_output@@AEAAXII_N@Z 0000000180031328     libucrt:output.obj
 0002:0000a328       $unwind$??$type_case_integer_parse_into_buffer@I@?$output_processor@_WV?$string_output_adapter@_W@__crt_stdio_output@@V?$standard_base@_WV?$string_output_adapter@_W@__crt_stdio_output@@@2@@__crt_stdio_output@@AEAAXII_N@Z 0000000180031328     libucrt:output.obj
 0002:0000a328       $unwind$??$type_case_integer_parse_into_buffer@_K@?$output_processor@DV?$stream_output_adapter@D@__crt_stdio_output@@V?$standard_base@DV?$stream_output_adapter@D@__crt_stdio_output@@@2@@__crt_stdio_output@@AEAAX_KI_N@Z 0000000180031328     libucrt:output.obj
 0002:0000a328       $unwind$??$type_case_integer_parse_into_buffer@_K@?$output_processor@_WV?$stream_output_adapter@_W@__crt_stdio_output@@V?$standard_base@_WV?$stream_output_adapter@_W@__crt_stdio_output@@@2@@__crt_stdio_output@@AEAAX_KI_N@Z 0000000180031328     libucrt:output.obj
 0002:0000a328       $unwind$??$type_case_integer_parse_into_buffer@_K@?$output_processor@_WV?$string_output_adapter@_W@__crt_stdio_output@@V?$standard_base@_WV?$string_output_adapter@_W@__crt_stdio_output@@@2@@__crt_stdio_output@@AEAAX_KI_N@Z 0000000180031328     libucrt:output.obj
 0002:0000a330       $unwind$??$?RV<lambda_fe5404e9642edbb7c8ae71e1dcfa4018>@@AEAV<lambda_36eeb330e99a4f0bf8a7da86d0894cb9>@@V<lambda_2fa474834de80dc12f7a3c6eddd7a366>@@@?$__crt_seh_guarded_call@H@@QEAAH$$QEAV<lambda_fe5404e9642edbb7c8ae71e1dcfa4018>@@AEAV<lambda_36eeb330e99a4f0bf8a7da86d0894cb9>@@$$QEAV<lambda_2fa474834de80dc12f7a3c6eddd7a366>@@@Z 0000000180031330     libucrt:output.obj
 0002:0000a354       $unwind$??$?RV<lambda_676bd5779251ec186b530f0a904b4b35>@@AEAV<lambda_b579ea784fd840951dfbcbdaebf709fd>@@V<lambda_10027885da78ada7fb00668d7e2e96b5>@@@?$__crt_seh_guarded_call@H@@QEAAH$$QEAV<lambda_676bd5779251ec186b530f0a904b4b35>@@AEAV<lambda_b579ea784fd840951dfbcbdaebf709fd>@@$$QEAV<lambda_10027885da78ada7fb00668d7e2e96b5>@@@Z 0000000180031354     libucrt:output.obj
 0002:0000a378       $unwind$_mbsdec_l          0000000180031378     libucrt:mbsdec.obj
 0002:0000a378       $unwind$_stricmp_l         0000000180031378     libucrt:stricmp.obj
 0002:0000a384       $unwind$?common_exit@@YAXHW4_crt_exit_cleanup_mode@@W4_crt_exit_return_mode@@@Z 0000000180031384     libucrt:exit.obj
 0002:0000a390       $unwind$??R<lambda_6e4b09c48022b2350581041d5f6b0c4c>@@QEBA@XZ 0000000180031390     libucrt:exit.obj
 0002:0000a3b0       $unwind$??$?RV<lambda_d80eeec6fff315bfe5c115232f3240e3>@@AEAV<lambda_6e4b09c48022b2350581041d5f6b0c4c>@@V<lambda_2358e3775559c9db80273638284d5e45>@@@?$__crt_seh_guarded_call@X@@QEAAX$$QEAV<lambda_d80eeec6fff315bfe5c115232f3240e3>@@AEAV<lambda_6e4b09c48022b2350581041d5f6b0c4c>@@$$QEAV<lambda_2358e3775559c9db80273638284d5e45>@@@Z 00000001800313b0     libucrt:exit.obj
 0002:0000a3d4       $unwind$_configure_narrow_argv 00000001800313d4     libucrt:argv_parsing.obj
 0002:0000a3e8       $unwind$??$free_environment@D@@YAXQEAPEAD@Z 00000001800313e8     libucrt:environment_initialization.obj
 0002:0000a3e8       $unwind$??$free_environment@_W@@YAXQEAPEA_W@Z 00000001800313e8     libucrt:environment_initialization.obj
 0002:0000a3f4       $unwind$??$create_environment@D@@YAQEAPEADQEAD@Z 00000001800313f4     libucrt:environment_initialization.obj
 0002:0000a40c       $unwind$_execute_onexit_table 000000018003140c     libucrt:onexit.obj
 0002:0000a414       $unwind$??$?RV<lambda_7777bce6b2f8c936911f934f8298dc43>@@AEAV<lambda_f03950bc5685219e0bcd2087efbe011e>@@V<lambda_3883c3dff614d5e0c5f61bb1ac94921c>@@@?$__crt_seh_guarded_call@H@@QEAAH$$QEAV<lambda_7777bce6b2f8c936911f934f8298dc43>@@AEAV<lambda_f03950bc5685219e0bcd2087efbe011e>@@$$QEAV<lambda_3883c3dff614d5e0c5f61bb1ac94921c>@@@Z 0000000180031414     libucrt:onexit.obj
 0002:0000a438       $unwind$terminate          0000000180031438     libucrt:terminate.obj
 0002:0000a458       $unwind$??$parse_integer@KV?$c_string_character_source@D@__crt_strtox@@@__crt_strtox@@YAKQEAU__crt_locale_pointers@@V?$c_string_character_source@D@0@H_N@Z 0000000180031458     libucrt:atox.obj
 0002:0000a474       $unwind$??$parse_integer@KV?$c_string_character_source@_W@__crt_strtox@@@__crt_strtox@@YAKQEAU__crt_locale_pointers@@V?$c_string_character_source@_W@0@H_N@Z 0000000180031474     libucrt:atox.obj
 0002:0000a490       $xdatasym                  0000000180031490     libucrt:strncmp.obj
 0002:0000a494       $unwind$strtol             0000000180031494     libucrt:strtox.obj
 0002:0000a494       $unwind$wcstol             0000000180031494     libucrt:strtox.obj
 0002:0000a494       $unwind$wctomb_s           0000000180031494     libucrt:wctomb.obj
 0002:0000a494       $unwind$_itow_s            0000000180031494     libucrt:xtoa.obj
 0002:0000a494       $unwind$_invalid_parameter_noinfo 0000000180031494     libucrt:invalid_parameter.obj
 0002:0000a494       $unwind$fflush             0000000180031494     libucrt:fflush.obj
 0002:0000a494       $unwind$_log10_special     0000000180031494     libucrt:log_special.obj
 0002:0000a49c       $unwind$__acrt_call_reportfault 000000018003149c     libucrt:invalid_parameter.obj
 0002:0000a4bc       $unwind$__acrt_MessageBoxW 00000001800314bc     libucrt:winapi_thunks.obj
 0002:0000a4bc       $unwind$_invalid_parameter 00000001800314bc     libucrt:invalid_parameter.obj
 0002:0000a4d0       $unwind$?__mbrtowc_utf8@__crt_mbstring@@YA_KPEA_WPEBD_KPEAU_Mbstatet@@@Z 00000001800314d0     libucrt:mbrtowc.obj
 0002:0000a4d0       $unwind$??$common_xtox_s@K_W@@YAHKQEA_W_KI_N@Z 00000001800314d0     libucrt:xtoa.obj
 0002:0000a4d8       $unwind$__acrt_GetModuleFileNameA 00000001800314d8     libucrt:getmodulefilenamea.obj
 0002:0000a4f4       $unwind$__dcrt_write_console 00000001800314f4     libucrt:initcon.obj
 0002:0000a4f4       $unwind$??$__acrt_wcs_to_mbs_cp@U__crt_win32_buffer_no_resizing@@@@YAHQEB_WAEAV?$__crt_win32_buffer@DU__crt_win32_buffer_no_resizing@@@@I@Z 00000001800314f4     libucrt:getmodulefilenamea.obj
 0002:0000a508       $unwind$?common_flush_all@@YAH_N@Z 0000000180031508     libucrt:fflush.obj
 0002:0000a510       $unwind$??$?RV<lambda_842d9ff0dc9ef11c61343bbaebe7f885>@@AEAV<lambda_c5860995281e5c4ce005b3de8f5874ee>@@V<lambda_d90129c13df834fdcbf8d2b88dafcf2d>@@@?$__crt_seh_guarded_call@X@@QEAAX$$QEAV<lambda_842d9ff0dc9ef11c61343bbaebe7f885>@@AEAV<lambda_c5860995281e5c4ce005b3de8f5874ee>@@$$QEAV<lambda_d90129c13df834fdcbf8d2b88dafcf2d>@@@Z 0000000180031510     libucrt:fflush.obj
 0002:0000a534       $unwind$??$?RV<lambda_886d6c58226a84441f68b9f2b8217b83>@@AEAV<lambda_ab61a845afdef5b7c387490eaf3616ee>@@V<lambda_f7f22ab5edc0698d5f6905b0d3f44752>@@@?$__crt_seh_guarded_call@X@@QEAAX$$QEAV<lambda_886d6c58226a84441f68b9f2b8217b83>@@AEAV<lambda_ab61a845afdef5b7c387490eaf3616ee>@@$$QEAV<lambda_f7f22ab5edc0698d5f6905b0d3f44752>@@@Z 0000000180031534     libucrt:fflush.obj
 0002:0000a55c       $unwind$??$?RV<lambda_c376a267cfb53b6959b3b692ec76b120>@@AEAV<lambda_9a32fed5bf61b6b509b2d3f6003082a1>@@V<lambda_572fbb9fa0ab338edf41edfd4b5fcc8d>@@@?$__crt_seh_guarded_call@H@@QEAAH$$QEAV<lambda_c376a267cfb53b6959b3b692ec76b120>@@AEAV<lambda_9a32fed5bf61b6b509b2d3f6003082a1>@@$$QEAV<lambda_572fbb9fa0ab338edf41edfd4b5fcc8d>@@@Z 000000018003155c     libucrt:fflush.obj
 0002:0000a580       $unwind$setvbuf            0000000180031580     libucrt:setvbuf.obj
 0002:0000a588       $unwind$??$?RV<lambda_84ec643ea9557e2f7dc01bb0e9624395>@@AEAV<lambda_ca71763b3c0644891230e4f79ea54fa6>@@V<lambda_439a761618c59b0600e24586724d733b>@@@?$__crt_seh_guarded_call@H@@QEAAH$$QEAV<lambda_84ec643ea9557e2f7dc01bb0e9624395>@@AEAV<lambda_ca71763b3c0644891230e4f79ea54fa6>@@$$QEAV<lambda_439a761618c59b0600e24586724d733b>@@@Z 0000000180031588     libucrt:setvbuf.obj
 0002:0000a5ac       $unwind$__acrt_uninitialize_locale 00000001800315ac     libucrt:wsetlocale.obj
 0002:0000a5ac       $unwind$__acrt_get_sigabrt_handler 00000001800315ac     libucrt:signal.obj
 0002:0000a5b4       $unwind$raise              00000001800315b4     libucrt:signal.obj
 0002:0000a5f0       $unwind$??$?RV<lambda_450d765d439847d4c735a33c368b5fc0>@@AEAV<lambda_44731a7d0e6d81c3e6aa82d741081786>@@V<lambda_601a2a7da3b7a96e9554ac7215c4b07c>@@@?$__crt_seh_guarded_call@P6AXH@Z@@QEAAP6AXH@Z$$QEAV<lambda_450d765d439847d4c735a33c368b5fc0>@@AEAV<lambda_44731a7d0e6d81c3e6aa82d741081786>@@$$QEAV<lambda_601a2a7da3b7a96e9554ac7215c4b07c>@@@Z 00000001800315f0     libucrt:signal.obj
 0002:0000a614       $unwind$_free_base         0000000180031614     libucrt:free_base.obj
 0002:0000a614       $unwind$?destroy_fls@@YAXPEAX@Z 0000000180031614     libucrt:per_thread_data.obj
 0002:0000a614       $unwind$__acrt_locale_free_numeric 0000000180031614     libucrt:initnum.obj
 0002:0000a614       $unwind$__acrt_locale_free_lc_time_if_unreferenced 0000000180031614     libucrt:locale_refcounting.obj
 0002:0000a61c       $unwind$__acrt_initialize_winapi_thunks 000000018003161c     libucrt:winapi_thunks.obj
 0002:0000a624       $unwind$?fp_format_e@@YAHQEBNQEAD_K12H_NIQEAU__crt_locale_pointers@@@Z 0000000180031624     libucrt:cvt.obj
 0002:0000a624       $unwind$_mbtowc_l          0000000180031624     libucrt:mbtowc.obj
 0002:0000a624       $unwind$__acrt_LCMapStringEx 0000000180031624     libucrt:winapi_thunks.obj
 0002:0000a638       $unwind$__acrt_is_interactive 0000000180031638     libucrt:winapi_thunks.obj
 0002:0000a64c       $unwind$_fcloseall         000000018003164c     libucrt:closeall.obj
 0002:0000a670       $unwind$__acrt_initialize_lowio 0000000180031670     libucrt:ioinit.obj
 0002:0000a690       $unwind$?initialize_inherited_file_handles_nolock@@YAXXZ 0000000180031690     libucrt:ioinit.obj
 0002:0000a6ac       $unwind$_wctomb_s_l        00000001800316ac     libucrt:wctomb.obj
 0002:0000a6bc       $unwind$?construct_ptd_array@@YAXQEAU__acrt_ptd@@@Z 00000001800316bc     libucrt:per_thread_data.obj
 0002:0000a6c4       $unwind$?destroy_ptd_array@@YAXQEAU__acrt_ptd@@@Z 00000001800316c4     libucrt:per_thread_data.obj
 0002:0000a6cc       $unwind$??$?RV<lambda_0ae27a3a962d80f24befdcbee591983d>@@AEAV<lambda_8d0ee55de4b1038c4002e0adecdf1839>@@V<lambda_dc504788e8f1664fe9b84e20bfb512f2>@@@?$__crt_seh_guarded_call@X@@QEAAX$$QEAV<lambda_0ae27a3a962d80f24befdcbee591983d>@@AEAV<lambda_8d0ee55de4b1038c4002e0adecdf1839>@@$$QEAV<lambda_dc504788e8f1664fe9b84e20bfb512f2>@@@Z 00000001800316cc     libucrt:per_thread_data.obj
 0002:0000a6f0       $unwind$??$?RV<lambda_aa87e3671a710a21b5dc78c0bdf72e11>@@AEAV<lambda_92619d2358a28f41a33ba319515a20b9>@@V<lambda_6992ecaafeb10aed2b74cb1fae11a551>@@@?$__crt_seh_guarded_call@X@@QEAAX$$QEAV<lambda_aa87e3671a710a21b5dc78c0bdf72e11>@@AEAV<lambda_92619d2358a28f41a33ba319515a20b9>@@$$QEAV<lambda_6992ecaafeb10aed2b74cb1fae11a551>@@@Z 00000001800316f0     libucrt:per_thread_data.obj
 0002:0000a714       $unwind$??$?RV<lambda_f2e299630e499de9f9a165e60fcd3db5>@@AEAV<lambda_2ae9d31cdba2644fcbeaf08da7c24588>@@V<lambda_40d01ff24d0e7b3814fdbdcee8eab3c7>@@@?$__crt_seh_guarded_call@X@@QEAAX$$QEAV<lambda_f2e299630e499de9f9a165e60fcd3db5>@@AEAV<lambda_2ae9d31cdba2644fcbeaf08da7c24588>@@$$QEAV<lambda_40d01ff24d0e7b3814fdbdcee8eab3c7>@@@Z 0000000180031714     libucrt:per_thread_data.obj
 0002:0000a738       $unwind$??$?RV<lambda_2d41944a1d46af3157314b8a01080d33>@@AEAV<lambda_8f455de75cd7d7f24b4096f044d8b9e6>@@V<lambda_aa500f224e6afead328df44964fe2772>@@@?$__crt_seh_guarded_call@X@@QEAAX$$QEAV<lambda_2d41944a1d46af3157314b8a01080d33>@@AEAV<lambda_8f455de75cd7d7f24b4096f044d8b9e6>@@$$QEAV<lambda_aa500f224e6afead328df44964fe2772>@@@Z 0000000180031738     libucrt:per_thread_data.obj
 0002:0000a75c       $unwind$__acrt_fp_format   000000018003175c     libucrt:cvt.obj
 0002:0000a770       $unwind$?fp_format_e_internal@@YAHQEAD_KH_NIQEAU_strflt@@2QEAU__crt_locale_pointers@@@Z 0000000180031770     libucrt:cvt.obj
 0002:0000a788       $unwind$?fp_format_a@@YAHQEBNPEAD_KQEAD2H_NIQEAU__crt_locale_pointers@@@Z 0000000180031788     libucrt:cvt.obj
 0002:0000a7a4       $unwind$__dcrt_get_narrow_environment_from_os 00000001800317a4     libucrt:get_environment_from_os.obj
 0002:0000a7a4       $unwind$?fp_format_f_internal@@YAHQEAD_KHQEAU_strflt@@_NQEAU__crt_locale_pointers@@@Z 00000001800317a4     libucrt:cvt.obj
 0002:0000a7a4       $unwind$??$__acrt_wcs_to_mbs_cp@U__crt_win32_buffer_internal_dynamic_resizing@@@@YAHQEB_WAEAV?$__crt_win32_buffer@DU__crt_win32_buffer_internal_dynamic_resizing@@@@I@Z 00000001800317a4     libucrt:argv_wildcards.obj
 0002:0000a7bc       $unwind$?fp_format_g@@YAHQEBNQEAD_K12H_NIQEAU__crt_locale_pointers@@@Z 00000001800317bc     libucrt:cvt.obj
 0002:0000a7d0       $unwind$_fputwc_nolock     00000001800317d0     libucrt:fputwc.obj
 0002:0000a7ec       $unwind$__acrt_stdio_end_temporary_buffering_nolock 00000001800317ec     libucrt:_sftbuf.obj
 0002:0000a7f4       $unwind$??$?RV<lambda_410d79af7f07d98d83a3f525b3859a53>@@AEAV<lambda_3e16ef9562a7dcce91392c22ab16ea36>@@V<lambda_38119f0e861e05405d8a144b9b982f0a>@@@?$__crt_seh_guarded_call@X@@QEAAX$$QEAV<lambda_410d79af7f07d98d83a3f525b3859a53>@@AEAV<lambda_3e16ef9562a7dcce91392c22ab16ea36>@@$$QEAV<lambda_38119f0e861e05405d8a144b9b982f0a>@@@Z 00000001800317f4     libucrt:wsetlocale.obj
 0002:0000a81c       $unwind$??$__acrt_mbs_to_wcs_cp@U__crt_win32_buffer_internal_dynamic_resizing@@@@YAHQEBDAEAV?$__crt_win32_buffer@_WU__crt_win32_buffer_internal_dynamic_resizing@@@@I@Z 000000018003181c     libucrt:argv_wildcards.obj
 0002:0000a834       $unwind$??$common_expand_argv_wildcards@D@@YAHQEAPEADQEAPEAPEAD@Z 0000000180031834     libucrt:argv_wildcards.obj
 0002:0000a84c       $unwind$??$copy_and_add_argument_to_buffer@D@@YAHQEBD0_KAEAV?$argument_list@D@?A0x5f5c8891@@@Z 000000018003184c     libucrt:argv_wildcards.obj
 0002:0000a868       $unwind$??$expand_argument_wildcards@D@@YAHQEAD0AEAV?$argument_list@D@?A0x5f5c8891@@@Z 0000000180031868     libucrt:argv_wildcards.obj
 0002:0000a88c       $unwind$_setmbcp_nolock    000000018003188c     libucrt:mbctype.obj
 0002:0000a8ac       $unwind$__dcrt_lowio_ensure_console_output_initialized 00000001800318ac     libucrt:initcon.obj
 0002:0000a8ac       $unwind$_isleadbyte_l      00000001800318ac     libucrt:_wctype.obj
 0002:0000a8ac       $unwind$?getSystemCP@@YAHH@Z 00000001800318ac     libucrt:mbctype.obj
 0002:0000a8b4       $unwind$?update_thread_multibyte_data_internal@@YAPEAU__crt_multibyte_data@@QEAU__acrt_ptd@@QEAPEAU1@@Z 00000001800318b4     libucrt:mbctype.obj
 0002:0000a8dc       $unwind$?setmbcp_internal@@YAHH_NQEAU__acrt_ptd@@QEAPEAU__crt_multibyte_data@@@Z 00000001800318dc     libucrt:mbctype.obj
 0002:0000a8ec       $unwind$?setSBUpLow@@YAXPEAU__crt_multibyte_data@@@Z 00000001800318ec     libucrt:mbctype.obj
 0002:0000a908       $unwind$??$?RV<lambda_efdfa57d1f175319df784efa44bb7b81>@@AEAV<lambda_5f0a4c1567f8adc6734073e5d1e1b35c>@@V<lambda_2e8a7d3640ea6ccb4c2413664c2db6fd>@@@?$__crt_seh_guarded_call@X@@QEAAX$$QEAV<lambda_efdfa57d1f175319df784efa44bb7b81>@@AEAV<lambda_5f0a4c1567f8adc6734073e5d1e1b35c>@@$$QEAV<lambda_2e8a7d3640ea6ccb4c2413664c2db6fd>@@@Z 0000000180031908     libucrt:mbctype.obj
 0002:0000a92c       $unwind$?x_ismbbtype_l@@YAHPEAU__crt_locale_pointers@@IHH@Z 000000018003192c     libucrt:ismbbyte.obj
 0002:0000a93c       $unwind$__GSHandlerCheckCommon 000000018003193c     LIBCMT:gshandler.obj
 0002:0000a93c       $unwind$__acrt_WideCharToMultiByte 000000018003193c     libucrt:widechartomultibyte.obj
 0002:0000a944       $unwind$_query_new_handler 0000000180031944     libucrt:new_handler.obj
 0002:0000a964       $unwind$iswctype           0000000180031964     libucrt:iswctype.obj
 0002:0000a970       $unwind$_isctype_l         0000000180031970     libucrt:isctype.obj
 0002:0000a98c       $unwind$_close             000000018003198c     libucrt:close.obj
 0002:0000a98c       $unwind$_commit            000000018003198c     libucrt:commit.obj
 0002:0000a994       $unwind$??$?RV<lambda_a37b2b86f63e897a80ea819b0eb08c01>@@AEAV<lambda_38ce7e780aa69e748d6df282ebc68efe>@@V<lambda_99fb1378e971ab6e7edea83e3a7a83a2>@@@?$__crt_seh_guarded_call@H@@QEAAH$$QEAV<lambda_a37b2b86f63e897a80ea819b0eb08c01>@@AEAV<lambda_38ce7e780aa69e748d6df282ebc68efe>@@$$QEAV<lambda_99fb1378e971ab6e7edea83e3a7a83a2>@@@Z 0000000180031994     libucrt:commit.obj
 0002:0000a9b8       $unwind$_write             00000001800319b8     libucrt:write.obj
 0002:0000a9e8       $unwind$_write_nolock      00000001800319e8     libucrt:write.obj
 0002:0000aa00       $unwind$?write_double_translated_ansi_nolock@@YA?AUwrite_result@?A0x17268360@@HQEBDI@Z 0000000180031a00     libucrt:write.obj
 0002:0000aa24       $unwind$?write_text_ansi_nolock@@YA?AUwrite_result@?A0x17268360@@HQEBDI@Z 0000000180031a24     libucrt:write.obj
 0002:0000aa24       $unwind$?write_text_utf16le_nolock@@YA?AUwrite_result@?A0x17268360@@HQEBDI@Z 0000000180031a24     libucrt:write.obj
 0002:0000aa44       $unwind$?write_text_utf8_nolock@@YA?AUwrite_result@?A0x17268360@@HQEBDI@Z 0000000180031a44     libucrt:write.obj
 0002:0000aa68       $unwind$fclose             0000000180031a68     libucrt:fclose.obj
 0002:0000aa8c       $unwind$_free_osfhnd       0000000180031a8c     libucrt:osfinfo.obj
 0002:0000aaa0       $unwind$__acrt_lowio_destroy_handle_array 0000000180031aa0     libucrt:osfinfo.obj
 0002:0000aab0       $unwind$__acrt_lowio_ensure_fh_exists 0000000180031ab0     libucrt:osfinfo.obj
 0002:0000aadc       $unwind$?__mbsrtowcs_utf8@__crt_mbstring@@YA_KPEA_WPEAPEBD_KPEAU_Mbstatet@@@Z 0000000180031adc     libucrt:mbrtowc.obj
 0002:0000aaf4       $unwind$__acrt_update_thread_locale_data 0000000180031af4     libucrt:locale_refcounting.obj
 0002:0000ab18       $unwind$__acrt_fltout      0000000180031b18     libucrt:cfout.obj
 0002:0000ab38       $unwind$?divide@__crt_strtox@@YA_KAEAUbig_integer@1@AEBU21@@Z 0000000180031b38     libucrt:cfout.obj
 0002:0000ab50       $chain$0$?divide@__crt_strtox@@YA_KAEAUbig_integer@1@AEBU21@@Z 0000000180031b50     libucrt:cfout.obj
 0002:0000ab64       $chain$1$?divide@__crt_strtox@@YA_KAEAUbig_integer@1@AEBU21@@Z 0000000180031b64     libucrt:cfout.obj
 0002:0000ab74       $unwind$??$write_buffer_nolock@D@@YA_NDV__crt_stdio_stream@@@Z 0000000180031b74     libucrt:_flsbuf.obj
 0002:0000ab84       $unwind$??$write_buffer_nolock@_W@@YA_N_WV__crt_stdio_stream@@@Z 0000000180031b84     libucrt:_flsbuf.obj
 0002:0000ab94       $unwind$__acrt_locale_free_monetary 0000000180031b94     libucrt:initmon.obj
 0002:0000ab9c       $unwind$__acrt_locale_free_time 0000000180031b9c     libucrt:inittime.obj
 0002:0000abac       $unwind$__acrt_GetStringTypeA 0000000180031bac     libucrt:getstringtypea.obj
 0002:0000abd4       $unwind$qsort              0000000180031bd4     libucrt:qsort.obj
 0002:0000abec       $chain$4$qsort             0000000180031bec     libucrt:qsort.obj
 0002:0000ac10       $chain$5$qsort             0000000180031c10     libucrt:qsort.obj
 0002:0000ac20       $unwind$strpbrk            0000000180031c20     libucrt:strpbrk.obj
 0002:0000ac30       $unwind$fallbackMethod     0000000180031c30     libucrt:strpbrk.obj
 0002:0000ac40       $unwind$__acrt_LCMapStringA 0000000180031c40     libucrt:lcmapstringa.obj
 0002:0000ac50       $unwind$?__acrt_LCMapStringA_stat@@YAHPEAU__crt_locale_pointers@@PEB_WKPEBDHPEADHHH@Z 0000000180031c50     libucrt:lcmapstringa.obj
 0002:0000ac78       $unwind$??$common_lseek@_J@@YA_JH_JH@Z 0000000180031c78     libucrt:lseek.obj
 0002:0000aca8       $unwind$_putwch_nolock     0000000180031ca8     libucrt:putwch.obj
 0002:0000acb0       $unwind$??$?RV<lambda_751a882b2c74d4b022dec766aa51a29a>@@AEAV<lambda_628dfdc04ba53c8bfc02c9951375f3f5>@@V<lambda_f6c7be5f7998530c34de24c7437d6b54>@@@?$__crt_seh_guarded_call@H@@QEAAH$$QEAV<lambda_751a882b2c74d4b022dec766aa51a29a>@@AEAV<lambda_628dfdc04ba53c8bfc02c9951375f3f5>@@$$QEAV<lambda_f6c7be5f7998530c34de24c7437d6b54>@@@Z 0000000180031cb0     libucrt:close.obj
 0002:0000acd4       $unwind$?__mbrtoc32_utf8@__crt_mbstring@@YA_KPEA_UPEBD_KPEAU_Mbstatet@@@Z 0000000180031cd4     libucrt:mbrtoc32.obj
 0002:0000acf0       $xdatasym                  0000000180031cf0     libucrt:log10.obj
 0002:0000acfc       $unwind$__acrt_fenv_set_control 0000000180031cfc     libucrt:_fenvutils.obj
 0002:0000ad0c       $unwind$_call_matherr      0000000180031d0c     libucrt:libm_error.obj
 0002:0000ad14       $unwind$_handle_error      0000000180031d14     libucrt:libm_error.obj
 0002:0000ad34       $unwind$__acrt_initialize_fma3 0000000180031d34     libucrt:fma3_available.obj
 0002:0000ad3c       $unwind$_log_special_common 0000000180031d3c     libucrt:log_special.obj
 0002:0000ad48       $xdatasym                  0000000180031d48     libucrt:fpsr.obj
 0002:0000ad50       $unwind$_raise_exc         0000000180031d50     libucrt:fpexcept.obj
 0002:0000ad58       $unwind$_raise_exc_ex      0000000180031d58     libucrt:fpexcept.obj
 0002:0000ad6c       $unwind$_ctrlfp            0000000180031d6c     libucrt:fpctrl.obj
 0002:0000ad94       $unwind$?DloadObtainSection@@YAPEAXPEAK0@Z 0000000180031d94     DelayImp:delayhlp.obj
 0002:0000ada4       $unwind$?DloadMakePermanentImageCommit@@YAXPEAX_K@Z 0000000180031da4     DelayImp:delayhlp.obj
 0002:0000adb0       $unwind$?DloadProtectSection@@YAXKPEAK@Z 0000000180031db0     DelayImp:delayhlp.obj
 0002:0000adc0       $unwind$__delayLoadHelper2 0000000180031dc0     DelayImp:delayhlp.obj
 0002:0000addc       $unwind$_IsNonwritableInCurrentImage 0000000180031ddc     LIBCMT:pesect.obj
 0002:0000ae00       $xdatasym                  0000000180031e00     LIBCMT:chkstk.obj
 0002:0000ae08       $xdatasym                  0000000180031e08     libvcruntime:memcmp.obj
 0002:0000b790       .edata                     0000000180032790     secp256k1.exp
 0002:0000b7b8       rgpv                       00000001800327b8     secp256k1.exp
 0002:0000b7bc       rgszName                   00000001800327bc     secp256k1.exp
 0002:0000b7c0       rgwOrd                     00000001800327c0     secp256k1.exp
 0002:0000b7c2       szName                     00000001800327c2     secp256k1.exp
 0002:0000b7d1       $N00001                    00000001800327d1     secp256k1.exp
 0002:0000ba74       .idata$6                   0000000180032a74     kernel32:KERNEL32.dll
 0003:00000030       ?__vcrt_flsindex@@3KA      0000000180033030     libvcruntime:per_thread_data.obj
 0003:00000160       ?errno_no_memory@@3HA      0000000180033160     libucrt:errno.obj
 0003:00000164       ?doserrno_no_memory@@3KA   0000000180033164     libucrt:errno.obj
 0003:000001b8       ?__acrt_flsindex@@3KA      00000001800331b8     libucrt:per_thread_data.obj
 0003:00000560       _mbctypes                  0000000180033560     libucrt:mbctype.obj
 0003:00000670       _mbcasemaps                0000000180033670     libucrt:mbctype.obj
 0003:00000770       ?__rgctypeflag@@3PADA      0000000180033770     libucrt:mbctype.obj
 0003:00000780       ?__rgcode_page_info@@3PAUcode_page_info@@A 0000000180033780     libucrt:mbctype.obj
 0003:00000a20       ?__dcrt_lowio_console_output_handle@@3PEAXEA 0000000180033a20     libucrt:initcon.obj
 0003:00000a30       ?dazSupported@?1??_ctrlfp@@9@9 0000000180033a30     libucrt:fpctrl.obj
 0003:00000a50       _module                    0000000180033a50     addon.obj
 0003:00000b78       ?__proc_attached@@3HA      0000000180033b78     LIBCMT:dll_dllmain.obj
 0003:00000b80       GS_ExceptionRecord         0000000180033b80     LIBCMT:gs_report.obj
 0003:00000c20       GS_ContextRecord           0000000180033c20     LIBCMT:gs_report.obj
 0003:00001118       ?is_initialized_as_dll@@3_NA 0000000180034118     LIBCMT:utility.obj
 0003:00001119       ?module_local_atexit_table_initialized@@3_NA 0000000180034119     LIBCMT:utility.obj
 0003:00001120       ?module_local_atexit_table@@3U_onexit_table_t@@A 0000000180034120     LIBCMT:utility.obj
 0003:00001138       ?module_local_at_quick_exit_table@@3U_onexit_table_t@@A 0000000180034138     LIBCMT:utility.obj
 0003:000011a0       ?heap@@3V_HeapManager@@A   00000001800341a0     libvcruntime:undname.obj
 0003:000011d0       ?__vcrt_startup_thread_ptd@@3U__vcrt_ptd@@A 00000001800341d0     libvcruntime:per_thread_data.obj
 0003:00001250       __vcrt_lock_table          0000000180034250     libvcruntime:locks.obj
 0003:00001278       __vcrt_locks_initialized   0000000180034278     libvcruntime:locks.obj
 0003:00001280       ?module_handles@@3PAPEAUHINSTANCE__@@A 0000000180034280     libvcruntime:winapi_downlevel.obj
 0003:00001298       ?function_pointers@@3PAPEAXA 0000000180034298     libvcruntime:winapi_downlevel.obj
 0003:000012dc       ?c_termination_complete@@3JA 00000001800342dc     libucrt:exit.obj
 0003:000012e0       ?thread_local_exit_callback_func@@3P6AXPEAXK0@ZEA 00000001800342e0     libucrt:exit.obj
 0003:000012f0       ?program_name@?1???$common_configure_argv@D@@YAHW4_crt_argv_mode@@@Z@4PADA 00000001800342f0     libucrt:argv_parsing.obj
 0003:00001448       ?__acrt_invalid_parameter_handler@@3V?$dual_state_global@P6AXPEB_W00I_K@Z@__crt_state_management@@A 0000000180034448     libucrt:invalid_parameter.obj
 0003:00001450       ?__acrt_app_type@@3W4_crt_app_type@@A 0000000180034450     libucrt:report_runtime_error.obj
 0003:00001454       __acrt_error_mode          0000000180034454     libucrt:set_error_mode.obj
 0003:00001458       ?ctrlc_action@@3V?$dual_state_global@P6AXH@Z@__crt_state_management@@A 0000000180034458     libucrt:signal.obj
 0003:00001460       ?ctrlbreak_action@@3V?$dual_state_global@P6AXH@Z@__crt_state_management@@A 0000000180034460     libucrt:signal.obj
 0003:00001468       ?abort_action@@3V?$dual_state_global@P6AXH@Z@__crt_state_management@@A 0000000180034468     libucrt:signal.obj
 0003:00001470       ?term_action@@3V?$dual_state_global@P6AXH@Z@__crt_state_management@@A 0000000180034470     libucrt:signal.obj
 0003:00001480       ?module_handles@@3PAPEAUHINSTANCE__@@A 0000000180034480     libucrt:winapi_thunks.obj
 0003:00001520       ?encoded_function_pointers@@3PAPEAXA 0000000180034520     libucrt:winapi_thunks.obj
 0003:00001a38       ?internal_state@?1??_mbtowc_l@@9@4U_Mbstatet@@A 0000000180034a38     libucrt:mbtowc.obj
 0003:00001a40       ?enable_percent_n@@3_KA    0000000180034a40     libucrt:printf_count_output.obj
 0003:00001a70       ?__acrt_lock_table@@3PAU_RTL_CRITICAL_SECTION@@A 0000000180034a70     libucrt:locks.obj
 0003:00001ca0       ?__acrt_locks_initialized@@3IA 0000000180034ca0     libucrt:locks.obj
 0003:00001ca4       ?state_cache@?1???$get_cached_win_policy@Udeveloper_information_policy_properties@?1??__acrt_get_developer_information_policy@@YA?AW4developer_information_policy@@XZ@@@YA?AW4developer_information_policy@@W4AppPolicyShowDeveloperDiagnostic@@@Z@4JA 0000000180034ca4     libucrt:win_policies.obj
 0003:00001ca8       ?state_cache@?1???$get_cached_win_policy@Uwindowing_model_policy_properties@?1??__acrt_get_windowing_model_policy@@YA?AW4windowing_model_policy@@XZ@@@YA?AW4windowing_model_policy@@W4AppPolicyWindowingModel@@@Z@4JA 0000000180034ca8     libucrt:win_policies.obj
 0003:00001cc8       ?fSystemSet@@3HA           0000000180034cc8     libucrt:mbctype.obj
 0003:00001ccc       ?initialized@?1??__acrt_initialize_multibyte@@9@4_NA 0000000180034ccc     libucrt:mbctype.obj
 0003:00001d08       ?__acrt_new_handler@@3V?$dual_state_global@P6AH_K@Z@__crt_state_management@@A 0000000180034d08     libucrt:new_handler.obj
 0003:00001d10       ?user_matherr@@3V?$dual_state_global@P6AHPEAU_exception@@@Z@__crt_state_management@@A 0000000180034d10     libucrt:matherr.obj
 0003:00001d18       ?__acrt_global_new_mode@@3V?$dual_state_global@J@__crt_state_management@@A 0000000180034d18     libucrt:new_mode.obj
 0003:00001d28       ?internal_pst@?1??__mbrtoc32_utf8@__crt_mbstring@@YA_KPEA_UPEBD_KPEAU_Mbstatet@@@Z@4U3@A 0000000180034d28     libucrt:mbrtoc32.obj
 0004:00000018       $pdata$?dllmain_crt_process_attach@@YAHQEAUHINSTANCE__@@QEAX@Z 0000000180035018     LIBCMT:dll_dllmain.obj
 0004:00000024       $pdata$?fin$0@?0??dllmain_crt_process_attach@@YAHQEAUHINSTANCE__@@QEAX@Z@4HA 0000000180035024     LIBCMT:dll_dllmain.obj
 0004:00000030       $pdata$?dllmain_crt_process_detach@@YAH_N@Z 0000000180035030     LIBCMT:dll_dllmain.obj
 0004:0000003c       $pdata$?fin$0@?0??dllmain_crt_process_detach@@YAH_N@Z@4HA 000000018003503c     LIBCMT:dll_dllmain.obj
 0004:00000048       $pdata$?dllmain_crt_dispatch@@YAHQEAUHINSTANCE__@@KQEAX@Z 0000000180035048     LIBCMT:dll_dllmain.obj
 0004:00000054       $pdata$?dllmain_dispatch@@YAHQEAUHINSTANCE__@@KQEAX@Z 0000000180035054     LIBCMT:dll_dllmain.obj
 0004:00000060       $pdata$?filt$0@?0??dllmain_dispatch@@YAHQEAUHINSTANCE__@@KQEAX@Z@4HA 0000000180035060     LIBCMT:dll_dllmain.obj
 0004:0000006c       $pdata$_DllMainCRTStartup  000000018003506c     LIBCMT:dll_dllmain.obj
 0004:00000078       $pdata$__report_securityfailure 0000000180035078     LIBCMT:gs_report.obj
 0004:00000084       $pdata$__report_rangecheckfailure 0000000180035084     LIBCMT:gs_report.obj
 0004:00000090       $pdata$__report_gsfailure  0000000180035090     LIBCMT:gs_report.obj
 0004:0000009c       $pdata$capture_current_context 000000018003509c     LIBCMT:gs_report.obj
 0004:000000a8       $pdata$capture_previous_context 00000001800350a8     LIBCMT:gs_report.obj
 0004:000000b4       $pdata$__raise_securityfailure 00000001800350b4     LIBCMT:gs_report.obj
 0004:000000c0       $pdata$__security_init_cookie 00000001800350c0     LIBCMT:gs_support.obj
 0004:000000cc       $pdata$__scrt_initialize_default_local_stdio_options 00000001800350cc     LIBCMT:default_local_stdio_options.obj
 0004:000000d8       $pdata$__scrt_is_nonwritable_in_current_image 00000001800350d8     LIBCMT:utility.obj
 0004:000000e4       $pdata$__scrt_is_nonwritable_in_current_image$filt$0 00000001800350e4     LIBCMT:utility.obj
 0004:000000f0       $pdata$__scrt_acquire_startup_lock 00000001800350f0     LIBCMT:utility.obj
 0004:000000fc       $pdata$__scrt_release_startup_lock 00000001800350fc     LIBCMT:utility.obj
 0004:00000108       $pdata$__scrt_initialize_crt 0000000180035108     LIBCMT:utility.obj
 0004:00000114       $pdata$__scrt_uninitialize_crt 0000000180035114     LIBCMT:utility.obj
 0004:00000120       $pdata$__scrt_initialize_onexit_tables 0000000180035120     LIBCMT:utility.obj
 0004:0000012c       $pdata$__scrt_dllmain_exception_filter 000000018003512c     LIBCMT:utility.obj
 0004:00000138       $pdata$__scrt_dllmain_before_initialize_c 0000000180035138     LIBCMT:utility.obj
 0004:00000144       $pdata$__scrt_dllmain_after_initialize_c 0000000180035144     LIBCMT:utility.obj
 0004:00000150       $pdata$__scrt_dllmain_uninitialize_c 0000000180035150     LIBCMT:utility.obj
 0004:0000015c       $pdata$__scrt_dllmain_uninitialize_critical 000000018003515c     LIBCMT:utility.obj
 0004:00000168       $pdata$__scrt_dllmain_crt_thread_attach 0000000180035168     LIBCMT:utility.obj
 0004:00000174       $pdata$__scrt_dllmain_crt_thread_detach 0000000180035174     LIBCMT:utility.obj
 0004:00000180       $pdata$__scrt_fastfail     0000000180035180     LIBCMT:utility_desktop.obj
 0004:0000018c       $pdata$_RTC_Initialize     000000018003518c     LIBCMT:initsect.obj
 0004:00000198       $pdata$_RTC_Terminate      0000000180035198     LIBCMT:initsect.obj
 0004:000001a4       $pdata$__isa_available_init 00000001800351a4     LIBCMT:cpu_disp.obj
 0004:000001bc       $pdata$__C_specific_handler 00000001800351bc     libvcruntime:riscchandler.obj
 0004:000001c8       $pdata$__std_type_info_destroy_list 00000001800351c8     libvcruntime:std_type_info.obj
 0004:000001d4       $pdata$__vcrt_initialize   00000001800351d4     libvcruntime:initialization.obj
 0004:000001e0       $pdata$__vcrt_uninitialize 00000001800351e0     libvcruntime:initialization.obj
 0004:000001ec       $pdata$__vcrt_uninitialize_critical 00000001800351ec     libvcruntime:initialization.obj
 0004:000001f8       $pdata$__vcrt_thread_attach 00000001800351f8     libvcruntime:initialization.obj
 0004:00000204       $pdata$__vcrt_thread_detach 0000000180035204     libvcruntime:initialization.obj
 0004:00000210       $pdata$__DestructExceptionObject 0000000180035210     libvcruntime:ehhelpers.obj
 0004:0000021c       $pdata$__DestructExceptionObject$filt$0 000000018003521c     libvcruntime:ehhelpers.obj
 0004:00000264       $pdata$__vcrt_initialize_ptd 0000000180035264     libvcruntime:per_thread_data.obj
 0004:00000270       $pdata$__vcrt_uninitialize_ptd 0000000180035270     libvcruntime:per_thread_data.obj
 0004:0000027c       $pdata$__vcrt_getptd       000000018003527c     libvcruntime:per_thread_data.obj
 0004:00000288       $pdata$__vcrt_getptd_noexit 0000000180035288     libvcruntime:per_thread_data.obj
 0004:00000294       $pdata$__vcrt_freeptd      0000000180035294     libvcruntime:per_thread_data.obj
 0004:000002a0       $pdata$__vcrt_freefls      00000001800352a0     libvcruntime:per_thread_data.obj
 0004:000002ac       $pdata$__vcrt_initialize_locks 00000001800352ac     libvcruntime:locks.obj
 0004:000002b8       $pdata$__vcrt_uninitialize_locks 00000001800352b8     libvcruntime:locks.obj
 0004:000002dc       $pdata$__vcrt_FlsAlloc     00000001800352dc     libvcruntime:winapi_downlevel.obj
 0004:000002e8       $pdata$__vcrt_FlsFree      00000001800352e8     libvcruntime:winapi_downlevel.obj
 0004:000002f4       $pdata$__vcrt_FlsGetValue  00000001800352f4     libvcruntime:winapi_downlevel.obj
 0004:00000300       $pdata$__vcrt_FlsSetValue  0000000180035300     libvcruntime:winapi_downlevel.obj
 0004:0000030c       $pdata$__vcrt_InitializeCriticalSectionEx 000000018003530c     libvcruntime:winapi_downlevel.obj
 0004:00000318       $pdata$?try_get_function@@YAPEAXW4function_id@?A0x87d18907@@QEBDQEBW4module_id@2@2@Z 0000000180035318     libvcruntime:winapi_downlevel.obj
 0004:00000354       $pdata$fwprintf            0000000180035354     libucrt:assert.obj
 0004:00000360       $pdata$swprintf            0000000180035360     libucrt:assert.obj
 0004:0000036c       $pdata$_wassert            000000018003536c     libucrt:assert.obj
 0004:00000378       $pdata$??$common_assert_to_stderr@_W@@YAXQEB_W0I@Z 0000000180035378     libucrt:assert.obj
 0004:00000384       $pdata$??$common_assert_to_message_box@_W@@YAXQEB_W0IQEAX@Z 0000000180035384     libucrt:assert.obj
 0004:00000390       $pdata$??$common_assert_to_message_box_build_string@_W@@YAXQEA_W_KQEB_W2IQEAX@Z 0000000180035390     libucrt:assert.obj
 0004:0000039c       $pdata$abort               000000018003539c     libucrt:abort.obj
 0004:000003a8       $pdata$__acrt_initialize_stdio 00000001800353a8     libucrt:_file.obj
 0004:000003b4       $pdata$__acrt_uninitialize_stdio 00000001800353b4     libucrt:_file.obj
 0004:000003c0       $pdata$??0_LocaleUpdate@@QEAA@QEAU__crt_locale_pointers@@@Z 00000001800353c0     libucrt:output.obj
 0004:000003cc       $pdata$__stdio_common_vfwprintf 00000001800353cc     libucrt:output.obj
 0004:000003d8       $pdata$__stdio_common_vfprintf 00000001800353d8     libucrt:output.obj
 0004:000003e4       $pdata$?validate_stream_is_ansi_if_required@?$__acrt_stdio_char_traits@D@@SA_NQEAU_iobuf@@@Z 00000001800353e4     libucrt:output.obj
 0004:000003f0       $pdata$??$common_vsprintf@Vstandard_base@__crt_stdio_output@@_W@@YAH_KQEA_W0QEB_WQEAU__crt_locale_pointers@@QEAD@Z 00000001800353f0     libucrt:output.obj
 0004:000003fc       $pdata$?write_string_impl@?$output_adapter_common@DV?$stream_output_adapter@D@__crt_stdio_output@@@__crt_stdio_output@@IEBAXQEBDHQEAHAEAV__crt_deferred_errno_cache@@@Z 00000001800353fc     libucrt:output.obj
 0004:00000408       $pdata$?process@?$output_processor@DV?$stream_output_adapter@D@__crt_stdio_output@@V?$standard_base@DV?$stream_output_adapter@D@__crt_stdio_output@@@2@@__crt_stdio_output@@QEAAHXZ 0000000180035408     libucrt:output.obj
 0004:00000414       $pdata$?state_case_normal@?$output_processor@DV?$stream_output_adapter@D@__crt_stdio_output@@V?$standard_base@DV?$stream_output_adapter@D@__crt_stdio_output@@@2@@__crt_stdio_output@@AEAA_NXZ 0000000180035414     libucrt:output.obj
 0004:00000420       $pdata$?state_case_normal_tchar@?$output_processor@DV?$stream_output_adapter@D@__crt_stdio_output@@V?$standard_base@DV?$stream_output_adapter@D@__crt_stdio_output@@@2@@__crt_stdio_output@@AEAA_ND@Z 0000000180035420     libucrt:output.obj
 0004:0000042c       $pdata$?parse_int_from_format_string@?$output_processor@DV?$stream_output_adapter@D@__crt_stdio_output@@V?$standard_base@DV?$stream_output_adapter@D@__crt_stdio_output@@@2@@__crt_stdio_output@@AEAA_NQEAH@Z 000000018003542c     libucrt:output.obj
 0004:00000438       $pdata$?state_case_size@?$output_processor@DV?$stream_output_adapter@D@__crt_stdio_output@@V?$standard_base@DV?$stream_output_adapter@D@__crt_stdio_output@@@2@@__crt_stdio_output@@AEAA_NXZ 0000000180035438     libucrt:output.obj
 0004:00000444       $pdata$?state_case_type@?$output_processor@DV?$stream_output_adapter@D@__crt_stdio_output@@V?$standard_base@DV?$stream_output_adapter@D@__crt_stdio_output@@@2@@__crt_stdio_output@@AEAA_NXZ 0000000180035444     libucrt:output.obj
 0004:00000450       $pdata$?type_case_c_tchar@?$output_processor@DV?$stream_output_adapter@D@__crt_stdio_output@@V?$standard_base@DV?$stream_output_adapter@D@__crt_stdio_output@@@2@@__crt_stdio_output@@AEAA_ND@Z 0000000180035450     libucrt:output.obj
 0004:0000045c       $pdata$?type_case_s@?$output_processor@DV?$stream_output_adapter@D@__crt_stdio_output@@V?$standard_base@DV?$stream_output_adapter@D@__crt_stdio_output@@@2@@__crt_stdio_output@@AEAA_NXZ 000000018003545c     libucrt:output.obj
 0004:00000468       $pdata$?type_case_a@?$output_processor@DV?$stream_output_adapter@D@__crt_stdio_output@@V?$standard_base@DV?$stream_output_adapter@D@__crt_stdio_output@@@2@@__crt_stdio_output@@AEAA_NXZ 0000000180035468     libucrt:output.obj
 0004:00000474       $pdata$?type_case_integer@?$output_processor@DV?$stream_output_adapter@D@__crt_stdio_output@@V?$standard_base@DV?$stream_output_adapter@D@__crt_stdio_output@@@2@@__crt_stdio_output@@AEAA_NI_N@Z 0000000180035474     libucrt:output.obj
 0004:00000480       $pdata$?type_case_n@?$output_processor@DV?$stream_output_adapter@D@__crt_stdio_output@@V?$standard_base@DV?$stream_output_adapter@D@__crt_stdio_output@@@2@@__crt_stdio_output@@AEAA_NXZ 0000000180035480     libucrt:output.obj
 0004:00000480       $pdata$?type_case_n@?$output_processor@_WV?$stream_output_adapter@_W@__crt_stdio_output@@V?$standard_base@_WV?$stream_output_adapter@_W@__crt_stdio_output@@@2@@__crt_stdio_output@@AEAA_NXZ 0000000180035480     libucrt:output.obj
 0004:00000480       $pdata$?type_case_n@?$output_processor@_WV?$string_output_adapter@_W@__crt_stdio_output@@V?$standard_base@_WV?$string_output_adapter@_W@__crt_stdio_output@@@2@@__crt_stdio_output@@AEAA_NXZ 0000000180035480     libucrt:output.obj
 0004:0000048c       $pdata$?write_stored_string_tchar@?$output_processor@DV?$stream_output_adapter@D@__crt_stdio_output@@V?$standard_base@DV?$stream_output_adapter@D@__crt_stdio_output@@@2@@__crt_stdio_output@@AEAA_ND@Z 000000018003548c     libucrt:output.obj
 0004:00000498       $pdata$??R<lambda_36eeb330e99a4f0bf8a7da86d0894cb9>@@QEBAHXZ 0000000180035498     libucrt:output.obj
 0004:000004a4       $pdata$?write_string_impl@?$output_adapter_common@_WV?$stream_output_adapter@_W@__crt_stdio_output@@@__crt_stdio_output@@IEBAXQEB_WHQEAHAEAV__crt_deferred_errno_cache@@@Z 00000001800354a4     libucrt:output.obj
 0004:000004b0       $pdata$?process@?$output_processor@_WV?$stream_output_adapter@_W@__crt_stdio_output@@V?$standard_base@_WV?$stream_output_adapter@_W@__crt_stdio_output@@@2@@__crt_stdio_output@@QEAAHXZ 00000001800354b0     libucrt:output.obj
 0004:000004bc       $pdata$?parse_int_from_format_string@?$output_processor@_WV?$stream_output_adapter@_W@__crt_stdio_output@@V?$standard_base@_WV?$stream_output_adapter@_W@__crt_stdio_output@@@2@@__crt_stdio_output@@AEAA_NQEAH@Z 00000001800354bc     libucrt:output.obj
 0004:000004bc       $pdata$?parse_int_from_format_string@?$output_processor@_WV?$string_output_adapter@_W@__crt_stdio_output@@V?$standard_base@_WV?$string_output_adapter@_W@__crt_stdio_output@@@2@@__crt_stdio_output@@AEAA_NQEAH@Z 00000001800354bc     libucrt:output.obj
 0004:000004c8       $pdata$?state_case_size@?$output_processor@_WV?$stream_output_adapter@_W@__crt_stdio_output@@V?$standard_base@_WV?$stream_output_adapter@_W@__crt_stdio_output@@@2@@__crt_stdio_output@@AEAA_NXZ 00000001800354c8     libucrt:output.obj
 0004:000004d4       $pdata$?state_case_type@?$output_processor@_WV?$stream_output_adapter@_W@__crt_stdio_output@@V?$standard_base@_WV?$stream_output_adapter@_W@__crt_stdio_output@@@2@@__crt_stdio_output@@AEAA_NXZ 00000001800354d4     libucrt:output.obj
 0004:000004e0       $pdata$?type_case_c_tchar@?$output_processor@_WV?$stream_output_adapter@_W@__crt_stdio_output@@V?$standard_base@_WV?$stream_output_adapter@_W@__crt_stdio_output@@@2@@__crt_stdio_output@@AEAA_N_W@Z 00000001800354e0     libucrt:output.obj
 0004:000004e0       $pdata$?type_case_c_tchar@?$output_processor@_WV?$string_output_adapter@_W@__crt_stdio_output@@V?$standard_base@_WV?$string_output_adapter@_W@__crt_stdio_output@@@2@@__crt_stdio_output@@AEAA_N_W@Z 00000001800354e0     libucrt:output.obj
 0004:000004ec       $pdata$?type_case_Z@?$output_processor@_WV?$stream_output_adapter@_W@__crt_stdio_output@@V?$standard_base@_WV?$stream_output_adapter@_W@__crt_stdio_output@@@2@@__crt_stdio_output@@AEAA_NXZ 00000001800354ec     libucrt:output.obj
 0004:000004ec       $pdata$?type_case_Z@?$output_processor@_WV?$string_output_adapter@_W@__crt_stdio_output@@V?$standard_base@_WV?$string_output_adapter@_W@__crt_stdio_output@@@2@@__crt_stdio_output@@AEAA_NXZ 00000001800354ec     libucrt:output.obj
 0004:000004f8       $pdata$?type_case_s@?$output_processor@_WV?$stream_output_adapter@_W@__crt_stdio_output@@V?$standard_base@_WV?$stream_output_adapter@_W@__crt_stdio_output@@@2@@__crt_stdio_output@@AEAA_NXZ 00000001800354f8     libucrt:output.obj
 0004:000004f8       $pdata$?type_case_s@?$output_processor@_WV?$string_output_adapter@_W@__crt_stdio_output@@V?$standard_base@_WV?$string_output_adapter@_W@__crt_stdio_output@@@2@@__crt_stdio_output@@AEAA_NXZ 00000001800354f8     libucrt:output.obj
 0004:00000504       $pdata$?type_case_a@?$output_processor@_WV?$stream_output_adapter@_W@__crt_stdio_output@@V?$standard_base@_WV?$stream_output_adapter@_W@__crt_stdio_output@@@2@@__crt_stdio_output@@AEAA_NXZ 0000000180035504     libucrt:output.obj
 0004:00000504       $pdata$?type_case_a@?$output_processor@_WV?$string_output_adapter@_W@__crt_stdio_output@@V?$standard_base@_WV?$string_output_adapter@_W@__crt_stdio_output@@@2@@__crt_stdio_output@@AEAA_NXZ 0000000180035504     libucrt:output.obj
 0004:00000510       $pdata$?type_case_integer@?$output_processor@_WV?$stream_output_adapter@_W@__crt_stdio_output@@V?$standard_base@_WV?$stream_output_adapter@_W@__crt_stdio_output@@@2@@__crt_stdio_output@@AEAA_NI_N@Z 0000000180035510     libucrt:output.obj
 0004:00000510       $pdata$?type_case_integer@?$output_processor@_WV?$string_output_adapter@_W@__crt_stdio_output@@V?$standard_base@_WV?$string_output_adapter@_W@__crt_stdio_output@@@2@@__crt_stdio_output@@AEAA_NI_N@Z 0000000180035510     libucrt:output.obj
 0004:0000051c       $pdata$?write_stored_string_tchar@?$output_processor@_WV?$stream_output_adapter@_W@__crt_stdio_output@@V?$standard_base@_WV?$stream_output_adapter@_W@__crt_stdio_output@@@2@@__crt_stdio_output@@AEAA_N_W@Z 000000018003551c     libucrt:output.obj
 0004:00000528       $pdata$??R<lambda_b579ea784fd840951dfbcbdaebf709fd>@@QEBAHXZ 0000000180035528     libucrt:output.obj
 0004:00000534       $pdata$?write_string@?$string_output_adapter@_W@__crt_stdio_output@@QEBAXQEB_WHQEAHAEAV__crt_deferred_errno_cache@@@Z 0000000180035534     libucrt:output.obj
 0004:00000540       $pdata$?process@?$output_processor@_WV?$string_output_adapter@_W@__crt_stdio_output@@V?$standard_base@_WV?$string_output_adapter@_W@__crt_stdio_output@@@2@@__crt_stdio_output@@QEAAHXZ 0000000180035540     libucrt:output.obj
 0004:0000054c       $pdata$?state_case_size@?$output_processor@_WV?$string_output_adapter@_W@__crt_stdio_output@@V?$standard_base@_WV?$string_output_adapter@_W@__crt_stdio_output@@@2@@__crt_stdio_output@@AEAA_NXZ 000000018003554c     libucrt:output.obj
 0004:00000558       $pdata$?state_case_type@?$output_processor@_WV?$string_output_adapter@_W@__crt_stdio_output@@V?$standard_base@_WV?$string_output_adapter@_W@__crt_stdio_output@@@2@@__crt_stdio_output@@AEAA_NXZ 0000000180035558     libucrt:output.obj
 0004:00000564       $pdata$?write_stored_string_tchar@?$output_processor@_WV?$string_output_adapter@_W@__crt_stdio_output@@V?$standard_base@_WV?$string_output_adapter@_W@__crt_stdio_output@@@2@@__crt_stdio_output@@AEAA_N_W@Z 0000000180035564     libucrt:output.obj
 0004:00000570       $pdata$??$write_multiple_characters@V?$string_output_adapter@_W@__crt_stdio_output@@D@__crt_stdio_output@@YAXAEBV?$string_output_adapter@_W@0@DHQEAH@Z 0000000180035570     libucrt:output.obj
 0004:0000057c       $pdata$??$write_multiple_characters@V?$stream_output_adapter@_W@__crt_stdio_output@@D@__crt_stdio_output@@YAXAEBV?$stream_output_adapter@_W@0@DHQEAH@Z 000000018003557c     libucrt:output.obj
 0004:00000588       $pdata$??$write_multiple_characters@V?$stream_output_adapter@D@__crt_stdio_output@@D@__crt_stdio_output@@YAXAEBV?$stream_output_adapter@D@0@DHQEAH@Z 0000000180035588     libucrt:output.obj
 0004:00000594       $pdata$??$ensure_buffer_is_big_enough@D@formatting_buffer@__crt_stdio_output@@QEAA_N_K@Z 0000000180035594     libucrt:output.obj
 0004:000005a0       $pdata$??$ensure_buffer_is_big_enough@_W@formatting_buffer@__crt_stdio_output@@QEAA_N_K@Z 00000001800355a0     libucrt:output.obj
 0004:000005ac       $pdata$??$type_case_integer_parse_into_buffer@_K@?$output_processor@_WV?$stream_output_adapter@_W@__crt_stdio_output@@V?$standard_base@_WV?$stream_output_adapter@_W@__crt_stdio_output@@@2@@__crt_stdio_output@@AEAAX_KI_N@Z 00000001800355ac     libucrt:output.obj
 0004:000005ac       $pdata$??$type_case_integer_parse_into_buffer@_K@?$output_processor@_WV?$string_output_adapter@_W@__crt_stdio_output@@V?$standard_base@_WV?$string_output_adapter@_W@__crt_stdio_output@@@2@@__crt_stdio_output@@AEAAX_KI_N@Z 00000001800355ac     libucrt:output.obj
 0004:000005b8       $pdata$??$type_case_integer_parse_into_buffer@I@?$output_processor@_WV?$stream_output_adapter@_W@__crt_stdio_output@@V?$standard_base@_WV?$stream_output_adapter@_W@__crt_stdio_output@@@2@@__crt_stdio_output@@AEAAXII_N@Z 00000001800355b8     libucrt:output.obj
 0004:000005b8       $pdata$??$type_case_integer_parse_into_buffer@I@?$output_processor@_WV?$string_output_adapter@_W@__crt_stdio_output@@V?$standard_base@_WV?$string_output_adapter@_W@__crt_stdio_output@@@2@@__crt_stdio_output@@AEAAXII_N@Z 00000001800355b8     libucrt:output.obj
 0004:000005c4       $pdata$??$type_case_integer_parse_into_buffer@_K@?$output_processor@DV?$stream_output_adapter@D@__crt_stdio_output@@V?$standard_base@DV?$stream_output_adapter@D@__crt_stdio_output@@@2@@__crt_stdio_output@@AEAAX_KI_N@Z 00000001800355c4     libucrt:output.obj
 0004:000005d0       $pdata$??$type_case_integer_parse_into_buffer@I@?$output_processor@DV?$stream_output_adapter@D@__crt_stdio_output@@V?$standard_base@DV?$stream_output_adapter@D@__crt_stdio_output@@@2@@__crt_stdio_output@@AEAAXII_N@Z 00000001800355d0     libucrt:output.obj
 0004:000005dc       $pdata$??$?RV<lambda_fe5404e9642edbb7c8ae71e1dcfa4018>@@AEAV<lambda_36eeb330e99a4f0bf8a7da86d0894cb9>@@V<lambda_2fa474834de80dc12f7a3c6eddd7a366>@@@?$__crt_seh_guarded_call@H@@QEAAH$$QEAV<lambda_fe5404e9642edbb7c8ae71e1dcfa4018>@@AEAV<lambda_36eeb330e99a4f0bf8a7da86d0894cb9>@@$$QEAV<lambda_2fa474834de80dc12f7a3c6eddd7a366>@@@Z 00000001800355dc     libucrt:output.obj
 0004:000005e8       $pdata$?fin$0@?0???$?RV<lambda_842d9ff0dc9ef11c61343bbaebe7f885>@@AEAV<lambda_c5860995281e5c4ce005b3de8f5874ee>@@V<lambda_d90129c13df834fdcbf8d2b88dafcf2d>@@@?$__crt_seh_guarded_call@X@@QEAAX$$QEAV<lambda_842d9ff0dc9ef11c61343bbaebe7f885>@@AEAV<lambda_c5860995281e5c4ce005b3de8f5874ee>@@$$QEAV<lambda_d90129c13df834fdcbf8d2b88dafcf2d>@@@Z@4HA 00000001800355e8     libucrt:fflush.obj
 0004:000005e8       $pdata$?fin$0@?0???$?RV<lambda_c376a267cfb53b6959b3b692ec76b120>@@AEAV<lambda_9a32fed5bf61b6b509b2d3f6003082a1>@@V<lambda_572fbb9fa0ab338edf41edfd4b5fcc8d>@@@?$__crt_seh_guarded_call@H@@QEAAH$$QEAV<lambda_c376a267cfb53b6959b3b692ec76b120>@@AEAV<lambda_9a32fed5bf61b6b509b2d3f6003082a1>@@$$QEAV<lambda_572fbb9fa0ab338edf41edfd4b5fcc8d>@@@Z@4HA 00000001800355e8     libucrt:fflush.obj
 0004:000005e8       $pdata$?fin$0@?0???$?RV<lambda_676bd5779251ec186b530f0a904b4b35>@@AEAV<lambda_b579ea784fd840951dfbcbdaebf709fd>@@V<lambda_10027885da78ada7fb00668d7e2e96b5>@@@?$__crt_seh_guarded_call@H@@QEAAH$$QEAV<lambda_676bd5779251ec186b530f0a904b4b35>@@AEAV<lambda_b579ea784fd840951dfbcbdaebf709fd>@@$$QEAV<lambda_10027885da78ada7fb00668d7e2e96b5>@@@Z@4HA 00000001800355e8     libucrt:output.obj
 0004:000005e8       $pdata$?fin$0@?0???$?RV<lambda_fe5404e9642edbb7c8ae71e1dcfa4018>@@AEAV<lambda_36eeb330e99a4f0bf8a7da86d0894cb9>@@V<lambda_2fa474834de80dc12f7a3c6eddd7a366>@@@?$__crt_seh_guarded_call@H@@QEAAH$$QEAV<lambda_fe5404e9642edbb7c8ae71e1dcfa4018>@@AEAV<lambda_36eeb330e99a4f0bf8a7da86d0894cb9>@@$$QEAV<lambda_2fa474834de80dc12f7a3c6eddd7a366>@@@Z@4HA 00000001800355e8     libucrt:output.obj
 0004:000005e8       $pdata$?fin$0@?0???$?RV<lambda_84ec643ea9557e2f7dc01bb0e9624395>@@AEAV<lambda_ca71763b3c0644891230e4f79ea54fa6>@@V<lambda_439a761618c59b0600e24586724d733b>@@@?$__crt_seh_guarded_call@H@@QEAAH$$QEAV<lambda_84ec643ea9557e2f7dc01bb0e9624395>@@AEAV<lambda_ca71763b3c0644891230e4f79ea54fa6>@@$$QEAV<lambda_439a761618c59b0600e24586724d733b>@@@Z@4HA 00000001800355e8     libucrt:setvbuf.obj
 0004:000005f4       $pdata$??$?RV<lambda_676bd5779251ec186b530f0a904b4b35>@@AEAV<lambda_b579ea784fd840951dfbcbdaebf709fd>@@V<lambda_10027885da78ada7fb00668d7e2e96b5>@@@?$__crt_seh_guarded_call@H@@QEAAH$$QEAV<lambda_676bd5779251ec186b530f0a904b4b35>@@AEAV<lambda_b579ea784fd840951dfbcbdaebf709fd>@@$$QEAV<lambda_10027885da78ada7fb00668d7e2e96b5>@@@Z 00000001800355f4     libucrt:output.obj
 0004:00000600       $pdata$_stricmp            0000000180035600     libucrt:stricmp.obj
 0004:0000060c       $pdata$_stricmp_l          000000018003560c     libucrt:stricmp.obj
 0004:00000618       $pdata$_initterm           0000000180035618     libucrt:initterm.obj
 0004:00000624       $pdata$_initterm_e         0000000180035624     libucrt:initterm.obj
 0004:00000630       $pdata$_seh_filter_exe     0000000180035630     libucrt:exception_filter.obj
 0004:0000063c       $pdata$?try_cor_exit_process@@YAXI@Z 000000018003563c     libucrt:exit.obj
 0004:00000648       $pdata$?exit_or_terminate_process@@YAXI@Z 0000000180035648     libucrt:exit.obj
 0004:00000654       $pdata$?common_exit@@YAXHW4_crt_exit_cleanup_mode@@W4_crt_exit_return_mode@@@Z 0000000180035654     libucrt:exit.obj
 0004:00000660       $pdata$??R<lambda_6e4b09c48022b2350581041d5f6b0c4c>@@QEBA@XZ 0000000180035660     libucrt:exit.obj
 0004:0000066c       $pdata$?filt$0@?0???R<lambda_6e4b09c48022b2350581041d5f6b0c4c>@@QEBA@XZ@4HA 000000018003566c     libucrt:exit.obj
 0004:00000678       $pdata$??$?RV<lambda_d80eeec6fff315bfe5c115232f3240e3>@@AEAV<lambda_6e4b09c48022b2350581041d5f6b0c4c>@@V<lambda_2358e3775559c9db80273638284d5e45>@@@?$__crt_seh_guarded_call@X@@QEAAX$$QEAV<lambda_d80eeec6fff315bfe5c115232f3240e3>@@AEAV<lambda_6e4b09c48022b2350581041d5f6b0c4c>@@$$QEAV<lambda_2358e3775559c9db80273638284d5e45>@@@Z 0000000180035678     libucrt:exit.obj
 0004:00000684       $pdata$?fin$0@?0???$?RV<lambda_0ae27a3a962d80f24befdcbee591983d>@@AEAV<lambda_8d0ee55de4b1038c4002e0adecdf1839>@@V<lambda_dc504788e8f1664fe9b84e20bfb512f2>@@@?$__crt_seh_guarded_call@X@@QEAAX$$QEAV<lambda_0ae27a3a962d80f24befdcbee591983d>@@AEAV<lambda_8d0ee55de4b1038c4002e0adecdf1839>@@$$QEAV<lambda_dc504788e8f1664fe9b84e20bfb512f2>@@@Z@4HA 0000000180035684     libucrt:per_thread_data.obj
 0004:00000684       $pdata$?fin$0@?0???$?RV<lambda_2d41944a1d46af3157314b8a01080d33>@@AEAV<lambda_8f455de75cd7d7f24b4096f044d8b9e6>@@V<lambda_aa500f224e6afead328df44964fe2772>@@@?$__crt_seh_guarded_call@X@@QEAAX$$QEAV<lambda_2d41944a1d46af3157314b8a01080d33>@@AEAV<lambda_8f455de75cd7d7f24b4096f044d8b9e6>@@$$QEAV<lambda_aa500f224e6afead328df44964fe2772>@@@Z@4HA 0000000180035684     libucrt:per_thread_data.obj
 0004:00000684       $pdata$?fin$0@?0???$?RV<lambda_aa87e3671a710a21b5dc78c0bdf72e11>@@AEAV<lambda_92619d2358a28f41a33ba319515a20b9>@@V<lambda_6992ecaafeb10aed2b74cb1fae11a551>@@@?$__crt_seh_guarded_call@X@@QEAAX$$QEAV<lambda_aa87e3671a710a21b5dc78c0bdf72e11>@@AEAV<lambda_92619d2358a28f41a33ba319515a20b9>@@$$QEAV<lambda_6992ecaafeb10aed2b74cb1fae11a551>@@@Z@4HA 0000000180035684     libucrt:per_thread_data.obj
 0004:00000684       $pdata$?fin$0@?0???$?RV<lambda_f2e299630e499de9f9a165e60fcd3db5>@@AEAV<lambda_2ae9d31cdba2644fcbeaf08da7c24588>@@V<lambda_40d01ff24d0e7b3814fdbdcee8eab3c7>@@@?$__crt_seh_guarded_call@X@@QEAAX$$QEAV<lambda_f2e299630e499de9f9a165e60fcd3db5>@@AEAV<lambda_2ae9d31cdba2644fcbeaf08da7c24588>@@$$QEAV<lambda_40d01ff24d0e7b3814fdbdcee8eab3c7>@@@Z@4HA 0000000180035684     libucrt:per_thread_data.obj
 0004:00000684       $pdata$?fin$0@?0???$?RV<lambda_efdfa57d1f175319df784efa44bb7b81>@@AEAV<lambda_5f0a4c1567f8adc6734073e5d1e1b35c>@@V<lambda_2e8a7d3640ea6ccb4c2413664c2db6fd>@@@?$__crt_seh_guarded_call@X@@QEAAX$$QEAV<lambda_efdfa57d1f175319df784efa44bb7b81>@@AEAV<lambda_5f0a4c1567f8adc6734073e5d1e1b35c>@@$$QEAV<lambda_2e8a7d3640ea6ccb4c2413664c2db6fd>@@@Z@4HA 0000000180035684     libucrt:mbctype.obj
 0004:00000684       $pdata$?fin$0@?0???$?RV<lambda_450d765d439847d4c735a33c368b5fc0>@@AEAV<lambda_44731a7d0e6d81c3e6aa82d741081786>@@V<lambda_601a2a7da3b7a96e9554ac7215c4b07c>@@@?$__crt_seh_guarded_call@P6AXH@Z@@QEAAP6AXH@Z$$QEAV<lambda_450d765d439847d4c735a33c368b5fc0>@@AEAV<lambda_44731a7d0e6d81c3e6aa82d741081786>@@$$QEAV<lambda_601a2a7da3b7a96e9554ac7215c4b07c>@@@Z@4HA 0000000180035684     libucrt:signal.obj
 0004:00000684       $pdata$?fin$0@?0???$?RV<lambda_d80eeec6fff315bfe5c115232f3240e3>@@AEAV<lambda_6e4b09c48022b2350581041d5f6b0c4c>@@V<lambda_2358e3775559c9db80273638284d5e45>@@@?$__crt_seh_guarded_call@X@@QEAAX$$QEAV<lambda_d80eeec6fff315bfe5c115232f3240e3>@@AEAV<lambda_6e4b09c48022b2350581041d5f6b0c4c>@@$$QEAV<lambda_2358e3775559c9db80273638284d5e45>@@@Z@4HA 0000000180035684     libucrt:exit.obj
 0004:00000684       $pdata$?fin$0@?0???$?RV<lambda_7777bce6b2f8c936911f934f8298dc43>@@AEAV<lambda_f03950bc5685219e0bcd2087efbe011e>@@V<lambda_3883c3dff614d5e0c5f61bb1ac94921c>@@@?$__crt_seh_guarded_call@H@@QEAAH$$QEAV<lambda_7777bce6b2f8c936911f934f8298dc43>@@AEAV<lambda_f03950bc5685219e0bcd2087efbe011e>@@$$QEAV<lambda_3883c3dff614d5e0c5f61bb1ac94921c>@@@Z@4HA 0000000180035684     libucrt:onexit.obj
 0004:00000690       $pdata$_configure_narrow_argv 0000000180035690     libucrt:argv_parsing.obj
 0004:0000069c       $pdata$__acrt_allocate_buffer_for_argv 000000018003569c     libucrt:argv_parsing.obj
 0004:000006a8       $pdata$??$parse_command_line@D@@YAXPEADPEAPEAD0PEA_K2@Z 00000001800356a8     libucrt:argv_parsing.obj
 0004:000006b4       $pdata$__dcrt_uninitialize_environments_nolock 00000001800356b4     libucrt:environment_initialization.obj
 0004:000006c0       $pdata$??$common_initialize_environment_nolock@D@@YAHXZ 00000001800356c0     libucrt:environment_initialization.obj
 0004:000006cc       $pdata$??$uninitialize_environment_internal@D@@YAXAEAPEAPEAD@Z 00000001800356cc     libucrt:environment_initialization.obj
 0004:000006d8       $pdata$??$uninitialize_environment_internal@_W@@YAXAEAPEAPEA_W@Z 00000001800356d8     libucrt:environment_initialization.obj
 0004:000006e4       $pdata$??$free_environment@D@@YAXQEAPEAD@Z 00000001800356e4     libucrt:environment_initialization.obj
 0004:000006e4       $pdata$??$free_environment@_W@@YAXQEAPEA_W@Z 00000001800356e4     libucrt:environment_initialization.obj
 0004:000006f0       $pdata$??$create_environment@D@@YAQEAPEADQEAD@Z 00000001800356f0     libucrt:environment_initialization.obj
 0004:000006fc       $pdata$_execute_onexit_table 00000001800356fc     libucrt:onexit.obj
 0004:00000708       $pdata$??R<lambda_f03950bc5685219e0bcd2087efbe011e>@@QEBAHXZ 0000000180035708     libucrt:onexit.obj
 0004:00000714       $pdata$??$?RV<lambda_7777bce6b2f8c936911f934f8298dc43>@@AEAV<lambda_f03950bc5685219e0bcd2087efbe011e>@@V<lambda_3883c3dff614d5e0c5f61bb1ac94921c>@@@?$__crt_seh_guarded_call@H@@QEAAH$$QEAV<lambda_7777bce6b2f8c936911f934f8298dc43>@@AEAV<lambda_f03950bc5685219e0bcd2087efbe011e>@@$$QEAV<lambda_3883c3dff614d5e0c5f61bb1ac94921c>@@@Z 0000000180035714     libucrt:onexit.obj
 0004:00000720       $pdata$__acrt_uninitialize 0000000180035720     libucrt:initialization.obj
 0004:0000072c       $pdata$__acrt_uninitialize_critical 000000018003572c     libucrt:initialization.obj
 0004:00000738       $pdata$__acrt_thread_attach 0000000180035738     libucrt:initialization.obj
 0004:00000744       $pdata$__acrt_thread_detach 0000000180035744     libucrt:initialization.obj
 0004:00000750       $pdata$initialize_c        0000000180035750     libucrt:initialization.obj
 0004:0000075c       $pdata$uninitialize_environment 000000018003575c     libucrt:initialization.obj
 0004:00000768       $pdata$initialize_pointers 0000000180035768     libucrt:initialization.obj
 0004:00000774       $pdata$uninitialize_allocated_memory 0000000180035774     libucrt:initialization.obj
 0004:00000780       $pdata$uninitialize_allocated_io_buffers 0000000180035780     libucrt:initialization.obj
 0004:0000078c       $pdata$terminate           000000018003578c     libucrt:terminate.obj
 0004:00000798       $pdata$strcpy_s            0000000180035798     libucrt:strcpy_s.obj
 0004:000007a4       $pdata$_ischartype_l       00000001800357a4     libucrt:atox.obj
 0004:000007b0       $pdata$??$parse_integer@KV?$c_string_character_source@D@__crt_strtox@@@__crt_strtox@@YAKQEAU__crt_locale_pointers@@V?$c_string_character_source@D@0@H_N@Z 00000001800357b0     libucrt:atox.obj
 0004:000007bc       $pdata$??$parse_integer@KV?$c_string_character_source@_W@__crt_strtox@@@__crt_strtox@@YAKQEAU__crt_locale_pointers@@V?$c_string_character_source@_W@0@H_N@Z 00000001800357bc     libucrt:atox.obj
 0004:000007d4       $pdata$_invalid_parameter_noinfo 00000001800357d4     libucrt:invalid_parameter.obj
 0004:000007e0       $pdata$_invoke_watson      00000001800357e0     libucrt:invalid_parameter.obj
 0004:000007ec       $pdata$__acrt_call_reportfault 00000001800357ec     libucrt:invalid_parameter.obj
 0004:000007f8       $pdata$_invalid_parameter  00000001800357f8     libucrt:invalid_parameter.obj
 0004:00000804       $pdata$_errno              0000000180035804     libucrt:errno.obj
 0004:00000810       $pdata$__doserrno          0000000180035810     libucrt:errno.obj
 0004:0000081c       $pdata$__acrt_errno_map_os_error 000000018003581c     libucrt:errno.obj
 0004:00000828       $pdata$_itow_s             0000000180035828     libucrt:xtoa.obj
 0004:00000834       $pdata$??$common_xtox_s@K_W@@YAHKQEA_W_KI_N@Z 0000000180035834     libucrt:xtoa.obj
 0004:00000840       $pdata$??$common_xtox@K_W@@YAHKQEA_W_KI_N@Z 0000000180035840     libucrt:xtoa.obj
 0004:0000084c       $pdata$_set_error_mode     000000018003584c     libucrt:set_error_mode.obj
 0004:00000858       $pdata$wcscat_s            0000000180035858     libucrt:wcscat_s.obj
 0004:00000864       $pdata$wcscpy_s            0000000180035864     libucrt:wcscpy_s.obj
 0004:00000870       $pdata$wcsncat_s           0000000180035870     libucrt:wcsncat_s.obj
 0004:0000087c       $pdata$__acrt_GetModuleFileNameA 000000018003587c     libucrt:getmodulefilenamea.obj
 0004:00000888       $pdata$??$__acrt_wcs_to_mbs_cp@U__crt_win32_buffer_no_resizing@@@@YAHQEB_WAEAV?$__crt_win32_buffer@DU__crt_win32_buffer_no_resizing@@@@I@Z 0000000180035888     libucrt:getmodulefilenamea.obj
 0004:00000894       $pdata$__acrt_show_wide_message_box 0000000180035894     libucrt:crtmbox.obj
 0004:000008a0       $pdata$fflush              00000001800358a0     libucrt:fflush.obj
 0004:000008ac       $pdata$_fflush_nolock      00000001800358ac     libucrt:fflush.obj
 0004:000008b8       $pdata$__acrt_stdio_flush_nolock 00000001800358b8     libucrt:fflush.obj
 0004:000008c4       $pdata$?common_flush_all@@YAH_N@Z 00000001800358c4     libucrt:fflush.obj
 0004:000008d0       $pdata$??$?RV<lambda_842d9ff0dc9ef11c61343bbaebe7f885>@@AEAV<lambda_c5860995281e5c4ce005b3de8f5874ee>@@V<lambda_d90129c13df834fdcbf8d2b88dafcf2d>@@@?$__crt_seh_guarded_call@X@@QEAAX$$QEAV<lambda_842d9ff0dc9ef11c61343bbaebe7f885>@@AEAV<lambda_c5860995281e5c4ce005b3de8f5874ee>@@$$QEAV<lambda_d90129c13df834fdcbf8d2b88dafcf2d>@@@Z 00000001800358d0     libucrt:fflush.obj
 0004:000008dc       $pdata$??$?RV<lambda_886d6c58226a84441f68b9f2b8217b83>@@AEAV<lambda_ab61a845afdef5b7c387490eaf3616ee>@@V<lambda_f7f22ab5edc0698d5f6905b0d3f44752>@@@?$__crt_seh_guarded_call@X@@QEAAX$$QEAV<lambda_886d6c58226a84441f68b9f2b8217b83>@@AEAV<lambda_ab61a845afdef5b7c387490eaf3616ee>@@$$QEAV<lambda_f7f22ab5edc0698d5f6905b0d3f44752>@@@Z 00000001800358dc     libucrt:fflush.obj
 0004:000008e8       $pdata$?fin$0@?0???$?RV<lambda_886d6c58226a84441f68b9f2b8217b83>@@AEAV<lambda_ab61a845afdef5b7c387490eaf3616ee>@@V<lambda_f7f22ab5edc0698d5f6905b0d3f44752>@@@?$__crt_seh_guarded_call@X@@QEAAX$$QEAV<lambda_886d6c58226a84441f68b9f2b8217b83>@@AEAV<lambda_ab61a845afdef5b7c387490eaf3616ee>@@$$QEAV<lambda_f7f22ab5edc0698d5f6905b0d3f44752>@@@Z@4HA 00000001800358e8     libucrt:fflush.obj
 0004:000008f4       $pdata$??$?RV<lambda_c376a267cfb53b6959b3b692ec76b120>@@AEAV<lambda_9a32fed5bf61b6b509b2d3f6003082a1>@@V<lambda_572fbb9fa0ab338edf41edfd4b5fcc8d>@@@?$__crt_seh_guarded_call@H@@QEAAH$$QEAV<lambda_c376a267cfb53b6959b3b692ec76b120>@@AEAV<lambda_9a32fed5bf61b6b509b2d3f6003082a1>@@$$QEAV<lambda_572fbb9fa0ab338edf41edfd4b5fcc8d>@@@Z 00000001800358f4     libucrt:fflush.obj
 0004:00000900       $pdata$setvbuf             0000000180035900     libucrt:setvbuf.obj
 0004:0000090c       $pdata$??R<lambda_ca71763b3c0644891230e4f79ea54fa6>@@QEBAHXZ 000000018003590c     libucrt:setvbuf.obj
 0004:00000918       $pdata$??$?RV<lambda_84ec643ea9557e2f7dc01bb0e9624395>@@AEAV<lambda_ca71763b3c0644891230e4f79ea54fa6>@@V<lambda_439a761618c59b0600e24586724d733b>@@@?$__crt_seh_guarded_call@H@@QEAAH$$QEAV<lambda_84ec643ea9557e2f7dc01bb0e9624395>@@AEAV<lambda_ca71763b3c0644891230e4f79ea54fa6>@@$$QEAV<lambda_439a761618c59b0600e24586724d733b>@@@Z 0000000180035918     libucrt:setvbuf.obj
 0004:00000924       $pdata$__acrt_get_sigabrt_handler 0000000180035924     libucrt:signal.obj
 0004:00000930       $pdata$raise               0000000180035930     libucrt:signal.obj
 0004:0000093c       $pdata$raise$fin$0         000000018003593c     libucrt:signal.obj
 0004:00000948       $pdata$??$?RV<lambda_450d765d439847d4c735a33c368b5fc0>@@AEAV<lambda_44731a7d0e6d81c3e6aa82d741081786>@@V<lambda_601a2a7da3b7a96e9554ac7215c4b07c>@@@?$__crt_seh_guarded_call@P6AXH@Z@@QEAAP6AXH@Z$$QEAV<lambda_450d765d439847d4c735a33c368b5fc0>@@AEAV<lambda_44731a7d0e6d81c3e6aa82d741081786>@@$$QEAV<lambda_601a2a7da3b7a96e9554ac7215c4b07c>@@@Z 0000000180035948     libucrt:signal.obj
 0004:00000954       $pdata$_calloc_base        0000000180035954     libucrt:calloc_base.obj
 0004:00000960       $pdata$_free_base          0000000180035960     libucrt:free_base.obj
 0004:0000096c       $pdata$__acrt_initialize_winapi_thunks 000000018003596c     libucrt:winapi_thunks.obj
 0004:00000978       $pdata$__acrt_uninitialize_winapi_thunks 0000000180035978     libucrt:winapi_thunks.obj
 0004:00000984       $pdata$__acrt_AreFileApisANSI 0000000180035984     libucrt:winapi_thunks.obj
 0004:00000990       $pdata$__acrt_FlsAlloc     0000000180035990     libucrt:winapi_thunks.obj
 0004:0000099c       $pdata$__acrt_FlsFree      000000018003599c     libucrt:winapi_thunks.obj
 0004:000009a8       $pdata$__acrt_FlsGetValue  00000001800359a8     libucrt:winapi_thunks.obj
 0004:000009b4       $pdata$__acrt_FlsSetValue  00000001800359b4     libucrt:winapi_thunks.obj
 0004:000009c0       $pdata$__acrt_InitializeCriticalSectionEx 00000001800359c0     libucrt:winapi_thunks.obj
 0004:000009cc       $pdata$__acrt_LCMapStringEx 00000001800359cc     libucrt:winapi_thunks.obj
 0004:000009d8       $pdata$__acrt_LocaleNameToLCID 00000001800359d8     libucrt:winapi_thunks.obj
 0004:000009e4       $pdata$__acrt_MessageBoxW  00000001800359e4     libucrt:winapi_thunks.obj
 0004:000009f0       $pdata$__acrt_AppPolicyGetProcessTerminationMethodInternal 00000001800359f0     libucrt:winapi_thunks.obj
 0004:000009fc       $pdata$__acrt_AppPolicyGetShowDeveloperDiagnosticInternal 00000001800359fc     libucrt:winapi_thunks.obj
 0004:00000a08       $pdata$__acrt_AppPolicyGetWindowingModelInternal 0000000180035a08     libucrt:winapi_thunks.obj
 0004:00000a14       $pdata$__acrt_can_show_message_box 0000000180035a14     libucrt:winapi_thunks.obj
 0004:00000a20       $pdata$__acrt_get_parent_window 0000000180035a20     libucrt:winapi_thunks.obj
 0004:00000a2c       $pdata$__acrt_is_interactive 0000000180035a2c     libucrt:winapi_thunks.obj
 0004:00000a38       $pdata$?try_get_function@@YAPEAXW4function_id@?A0x391cf84c@@QEBDQEBW4module_id@2@2@Z 0000000180035a38     libucrt:winapi_thunks.obj
 0004:00000a44       $pdata$_fcloseall          0000000180035a44     libucrt:closeall.obj
 0004:00000a50       $pdata$_fcloseall$fin$0    0000000180035a50     libucrt:closeall.obj
 0004:00000a5c       $pdata$__acrt_stdio_free_buffer_nolock 0000000180035a5c     libucrt:_freebuf.obj
 0004:00000a68       $pdata$__acrt_initialize_lowio 0000000180035a68     libucrt:ioinit.obj
 0004:00000a74       $pdata$__acrt_initialize_lowio$fin$0 0000000180035a74     libucrt:ioinit.obj
 0004:00000a74       $pdata$__acrt_lowio_ensure_fh_exists$fin$0 0000000180035a74     libucrt:osfinfo.obj
 0004:00000a80       $pdata$__acrt_uninitialize_lowio 0000000180035a80     libucrt:ioinit.obj
 0004:00000a8c       $pdata$?initialize_inherited_file_handles_nolock@@YAXXZ 0000000180035a8c     libucrt:ioinit.obj
 0004:00000a98       $pdata$?initialize_stdio_handles_nolock@@YAXXZ 0000000180035a98     libucrt:ioinit.obj
 0004:00000aa4       $pdata$_malloc_base        0000000180035aa4     libucrt:malloc_base.obj
 0004:00000ab0       $pdata$wcstol              0000000180035ab0     libucrt:strtox.obj
 0004:00000abc       $pdata$strtol              0000000180035abc     libucrt:strtox.obj
 0004:00000ac8       $pdata$_mbtowc_l           0000000180035ac8     libucrt:mbtowc.obj
 0004:00000ad4       $pdata$wctomb_s            0000000180035ad4     libucrt:wctomb.obj
 0004:00000ae0       $pdata$_wctomb_s_l         0000000180035ae0     libucrt:wctomb.obj
 0004:00000aec       $pdata$__acrt_initialize_ptd 0000000180035aec     libucrt:per_thread_data.obj
 0004:00000af8       $pdata$__acrt_uninitialize_ptd 0000000180035af8     libucrt:per_thread_data.obj
 0004:00000b04       $pdata$__acrt_getptd       0000000180035b04     libucrt:per_thread_data.obj
 0004:00000b10       $pdata$__acrt_getptd_head  0000000180035b10     libucrt:per_thread_data.obj
 0004:00000b1c       $pdata$__acrt_getptd_noexit 0000000180035b1c     libucrt:per_thread_data.obj
 0004:00000b28       $pdata$__acrt_freeptd      0000000180035b28     libucrt:per_thread_data.obj
 0004:00000b34       $pdata$?destroy_fls@@YAXPEAX@Z 0000000180035b34     libucrt:per_thread_data.obj
 0004:00000b40       $pdata$?replace_current_thread_locale_nolock@@YAXQEAU__acrt_ptd@@QEAU__crt_locale_data@@@Z 0000000180035b40     libucrt:per_thread_data.obj
 0004:00000b4c       $pdata$?construct_ptd_array@@YAXQEAU__acrt_ptd@@@Z 0000000180035b4c     libucrt:per_thread_data.obj
 0004:00000b58       $pdata$?destroy_ptd_array@@YAXQEAU__acrt_ptd@@@Z 0000000180035b58     libucrt:per_thread_data.obj
 0004:00000b64       $pdata$??$?RV<lambda_0ae27a3a962d80f24befdcbee591983d>@@AEAV<lambda_8d0ee55de4b1038c4002e0adecdf1839>@@V<lambda_dc504788e8f1664fe9b84e20bfb512f2>@@@?$__crt_seh_guarded_call@X@@QEAAX$$QEAV<lambda_0ae27a3a962d80f24befdcbee591983d>@@AEAV<lambda_8d0ee55de4b1038c4002e0adecdf1839>@@$$QEAV<lambda_dc504788e8f1664fe9b84e20bfb512f2>@@@Z 0000000180035b64     libucrt:per_thread_data.obj
 0004:00000b70       $pdata$??$?RV<lambda_aa87e3671a710a21b5dc78c0bdf72e11>@@AEAV<lambda_92619d2358a28f41a33ba319515a20b9>@@V<lambda_6992ecaafeb10aed2b74cb1fae11a551>@@@?$__crt_seh_guarded_call@X@@QEAAX$$QEAV<lambda_aa87e3671a710a21b5dc78c0bdf72e11>@@AEAV<lambda_92619d2358a28f41a33ba319515a20b9>@@$$QEAV<lambda_6992ecaafeb10aed2b74cb1fae11a551>@@@Z 0000000180035b70     libucrt:per_thread_data.obj
 0004:00000b7c       $pdata$??$?RV<lambda_f2e299630e499de9f9a165e60fcd3db5>@@AEAV<lambda_2ae9d31cdba2644fcbeaf08da7c24588>@@V<lambda_40d01ff24d0e7b3814fdbdcee8eab3c7>@@@?$__crt_seh_guarded_call@X@@QEAAX$$QEAV<lambda_f2e299630e499de9f9a165e60fcd3db5>@@AEAV<lambda_2ae9d31cdba2644fcbeaf08da7c24588>@@$$QEAV<lambda_40d01ff24d0e7b3814fdbdcee8eab3c7>@@@Z 0000000180035b7c     libucrt:per_thread_data.obj
 0004:00000b88       $pdata$??$?RV<lambda_2d41944a1d46af3157314b8a01080d33>@@AEAV<lambda_8f455de75cd7d7f24b4096f044d8b9e6>@@V<lambda_aa500f224e6afead328df44964fe2772>@@@?$__crt_seh_guarded_call@X@@QEAAX$$QEAV<lambda_2d41944a1d46af3157314b8a01080d33>@@AEAV<lambda_8f455de75cd7d7f24b4096f044d8b9e6>@@$$QEAV<lambda_aa500f224e6afead328df44964fe2772>@@@Z 0000000180035b88     libucrt:per_thread_data.obj
 0004:00000b94       $pdata$__acrt_update_locale_info 0000000180035b94     libucrt:locale_update.obj
 0004:00000ba0       $pdata$__acrt_update_multibyte_info 0000000180035ba0     libucrt:locale_update.obj
 0004:00000bac       $pdata$__acrt_fp_format    0000000180035bac     libucrt:cvt.obj
 0004:00000bb8       $pdata$?fp_format_e_internal@@YAHQEAD_KH_NIQEAU_strflt@@2QEAU__crt_locale_pointers@@@Z 0000000180035bb8     libucrt:cvt.obj
 0004:00000bc4       $pdata$?fp_format_e@@YAHQEBNQEAD_K12H_NIQEAU__crt_locale_pointers@@@Z 0000000180035bc4     libucrt:cvt.obj
 0004:00000bd0       $pdata$?fp_format_a@@YAHQEBNPEAD_KQEAD2H_NIQEAU__crt_locale_pointers@@@Z 0000000180035bd0     libucrt:cvt.obj
 0004:00000bdc       $pdata$?fp_format_f_internal@@YAHQEAD_KHQEAU_strflt@@_NQEAU__crt_locale_pointers@@@Z 0000000180035bdc     libucrt:cvt.obj
 0004:00000be8       $pdata$?fp_format_g@@YAHQEBNQEAD_K12H_NIQEAU__crt_locale_pointers@@@Z 0000000180035be8     libucrt:cvt.obj
 0004:00000bf4       $pdata$_fputwc_nolock      0000000180035bf4     libucrt:fputwc.obj
 0004:00000c00       $pdata$_fileno             0000000180035c00     libucrt:fileno.obj
 0004:00000c0c       $pdata$__acrt_stdio_begin_temporary_buffering_nolock 0000000180035c0c     libucrt:_sftbuf.obj
 0004:00000c18       $pdata$__acrt_stdio_end_temporary_buffering_nolock 0000000180035c18     libucrt:_sftbuf.obj
 0004:00000c24       $pdata$__acrt_uninitialize_locale 0000000180035c24     libucrt:wsetlocale.obj
 0004:00000c30       $pdata$??$?RV<lambda_410d79af7f07d98d83a3f525b3859a53>@@AEAV<lambda_3e16ef9562a7dcce91392c22ab16ea36>@@V<lambda_38119f0e861e05405d8a144b9b982f0a>@@@?$__crt_seh_guarded_call@X@@QEAAX$$QEAV<lambda_410d79af7f07d98d83a3f525b3859a53>@@AEAV<lambda_3e16ef9562a7dcce91392c22ab16ea36>@@$$QEAV<lambda_38119f0e861e05405d8a144b9b982f0a>@@@Z 0000000180035c30     libucrt:wsetlocale.obj
 0004:00000c3c       $pdata$?fin$0@?0???$?RV<lambda_410d79af7f07d98d83a3f525b3859a53>@@AEAV<lambda_3e16ef9562a7dcce91392c22ab16ea36>@@V<lambda_38119f0e861e05405d8a144b9b982f0a>@@@?$__crt_seh_guarded_call@X@@QEAAX$$QEAV<lambda_410d79af7f07d98d83a3f525b3859a53>@@AEAV<lambda_3e16ef9562a7dcce91392c22ab16ea36>@@$$QEAV<lambda_38119f0e861e05405d8a144b9b982f0a>@@@Z@4HA 0000000180035c3c     libucrt:wsetlocale.obj
 0004:00000c48       $pdata$__acrt_initialize_locks 0000000180035c48     libucrt:locks.obj
 0004:00000c54       $pdata$__acrt_uninitialize_locks 0000000180035c54     libucrt:locks.obj
 0004:00000c60       $pdata$__acrt_get_process_end_policy 0000000180035c60     libucrt:win_policies.obj
 0004:00000c6c       $pdata$__acrt_get_developer_information_policy 0000000180035c6c     libucrt:win_policies.obj
 0004:00000c78       $pdata$__acrt_get_windowing_model_policy 0000000180035c78     libucrt:win_policies.obj
 0004:00000c84       $pdata$??$__acrt_mbs_to_wcs_cp@U__crt_win32_buffer_internal_dynamic_resizing@@@@YAHQEBDAEAV?$__crt_win32_buffer@_WU__crt_win32_buffer_internal_dynamic_resizing@@@@I@Z 0000000180035c84     libucrt:argv_wildcards.obj
 0004:00000c90       $pdata$??$__acrt_wcs_to_mbs_cp@U__crt_win32_buffer_internal_dynamic_resizing@@@@YAHQEB_WAEAV?$__crt_win32_buffer@DU__crt_win32_buffer_internal_dynamic_resizing@@@@I@Z 0000000180035c90     libucrt:argv_wildcards.obj
 0004:00000c9c       $pdata$??$common_expand_argv_wildcards@D@@YAHQEAPEADQEAPEAPEAD@Z 0000000180035c9c     libucrt:argv_wildcards.obj
 0004:00000ca8       $pdata$??$copy_and_add_argument_to_buffer@D@@YAHQEBD0_KAEAV?$argument_list@D@?A0x5f5c8891@@@Z 0000000180035ca8     libucrt:argv_wildcards.obj
 0004:00000cb4       $pdata$??$expand_argument_wildcards@D@@YAHQEAD0AEAV?$argument_list@D@?A0x5f5c8891@@@Z 0000000180035cb4     libucrt:argv_wildcards.obj
 0004:00000cc0       $pdata$__acrt_update_thread_multibyte_data 0000000180035cc0     libucrt:mbctype.obj
 0004:00000ccc       $pdata$__acrt_initialize_multibyte 0000000180035ccc     libucrt:mbctype.obj
 0004:00000cd8       $pdata$_setmbcp_nolock     0000000180035cd8     libucrt:mbctype.obj
 0004:00000ce4       $pdata$?getSystemCP@@YAHH@Z 0000000180035ce4     libucrt:mbctype.obj
 0004:00000cf0       $pdata$?setSBCS@@YAXPEAU__crt_multibyte_data@@@Z 0000000180035cf0     libucrt:mbctype.obj
 0004:00000cfc       $pdata$?update_thread_multibyte_data_internal@@YAPEAU__crt_multibyte_data@@QEAU__acrt_ptd@@QEAPEAU1@@Z 0000000180035cfc     libucrt:mbctype.obj
 0004:00000d08       $pdata$?fin$0@?0??update_thread_multibyte_data_internal@@YAPEAU__crt_multibyte_data@@QEAU__acrt_ptd@@QEAPEAU1@@Z@4HA 0000000180035d08     libucrt:mbctype.obj
 0004:00000d14       $pdata$?setmbcp_internal@@YAHH_NQEAU__acrt_ptd@@QEAPEAU__crt_multibyte_data@@@Z 0000000180035d14     libucrt:mbctype.obj
 0004:00000d20       $pdata$?setSBUpLow@@YAXPEAU__crt_multibyte_data@@@Z 0000000180035d20     libucrt:mbctype.obj
 0004:00000d2c       $pdata$??$?RV<lambda_efdfa57d1f175319df784efa44bb7b81>@@AEAV<lambda_5f0a4c1567f8adc6734073e5d1e1b35c>@@V<lambda_2e8a7d3640ea6ccb4c2413664c2db6fd>@@@?$__crt_seh_guarded_call@X@@QEAAX$$QEAV<lambda_efdfa57d1f175319df784efa44bb7b81>@@AEAV<lambda_5f0a4c1567f8adc6734073e5d1e1b35c>@@$$QEAV<lambda_2e8a7d3640ea6ccb4c2413664c2db6fd>@@@Z 0000000180035d2c     libucrt:mbctype.obj
 0004:00000d38       $pdata$?x_ismbbtype_l@@YAHPEAU__crt_locale_pointers@@IHH@Z 0000000180035d38     libucrt:ismbbyte.obj
 0004:00000d44       $pdata$__acrt_initialize_command_line 0000000180035d44     libucrt:argv_data.obj
 0004:00000d50       $pdata$__acrt_WideCharToMultiByte 0000000180035d50     libucrt:widechartomultibyte.obj
 0004:00000d5c       $pdata$__dcrt_get_narrow_environment_from_os 0000000180035d5c     libucrt:get_environment_from_os.obj
 0004:00000d68       $pdata$_recalloc_base      0000000180035d68     libucrt:recalloc.obj
 0004:00000d74       $pdata$__acrt_initialize_heap 0000000180035d74     libucrt:heap_handle.obj
 0004:00000d80       $pdata$__acrt_execute_initializers 0000000180035d80     libucrt:shared_initialization.obj
 0004:00000d8c       $pdata$__acrt_execute_uninitializers 0000000180035d8c     libucrt:shared_initialization.obj
 0004:00000d98       $pdata$_callnewh           0000000180035d98     libucrt:new_handler.obj
 0004:00000da4       $pdata$_query_new_handler  0000000180035da4     libucrt:new_handler.obj
 0004:00000db0       $pdata$_query_new_handler$fin$0 0000000180035db0     libucrt:new_handler.obj
 0004:00000dbc       $pdata$__pctype_func       0000000180035dbc     libucrt:ctype.obj
 0004:00000dc8       $pdata$iswctype            0000000180035dc8     libucrt:iswctype.obj
 0004:00000dd4       $pdata$_isctype_l          0000000180035dd4     libucrt:isctype.obj
 0004:00000de0       $pdata$_commit             0000000180035de0     libucrt:commit.obj
 0004:00000dec       $pdata$??$?RV<lambda_a37b2b86f63e897a80ea819b0eb08c01>@@AEAV<lambda_38ce7e780aa69e748d6df282ebc68efe>@@V<lambda_99fb1378e971ab6e7edea83e3a7a83a2>@@@?$__crt_seh_guarded_call@H@@QEAAH$$QEAV<lambda_a37b2b86f63e897a80ea819b0eb08c01>@@AEAV<lambda_38ce7e780aa69e748d6df282ebc68efe>@@$$QEAV<lambda_99fb1378e971ab6e7edea83e3a7a83a2>@@@Z 0000000180035dec     libucrt:commit.obj
 0004:00000df8       $pdata$?fin$0@?0???$?RV<lambda_751a882b2c74d4b022dec766aa51a29a>@@AEAV<lambda_628dfdc04ba53c8bfc02c9951375f3f5>@@V<lambda_f6c7be5f7998530c34de24c7437d6b54>@@@?$__crt_seh_guarded_call@H@@QEAAH$$QEAV<lambda_751a882b2c74d4b022dec766aa51a29a>@@AEAV<lambda_628dfdc04ba53c8bfc02c9951375f3f5>@@$$QEAV<lambda_f6c7be5f7998530c34de24c7437d6b54>@@@Z@4HA 0000000180035df8     libucrt:close.obj
 0004:00000df8       $pdata$?fin$0@?0???$?RV<lambda_a37b2b86f63e897a80ea819b0eb08c01>@@AEAV<lambda_38ce7e780aa69e748d6df282ebc68efe>@@V<lambda_99fb1378e971ab6e7edea83e3a7a83a2>@@@?$__crt_seh_guarded_call@H@@QEAAH$$QEAV<lambda_a37b2b86f63e897a80ea819b0eb08c01>@@AEAV<lambda_38ce7e780aa69e748d6df282ebc68efe>@@$$QEAV<lambda_99fb1378e971ab6e7edea83e3a7a83a2>@@@Z@4HA 0000000180035df8     libucrt:commit.obj
 0004:00000e04       $pdata$_write              0000000180035e04     libucrt:write.obj
 0004:00000e10       $pdata$?fin$0@?0???$common_lseek@_J@@YA_JH_JH@Z@4HA 0000000180035e10     libucrt:lseek.obj
 0004:00000e10       $pdata$_write$fin$0        0000000180035e10     libucrt:write.obj
 0004:00000e1c       $pdata$_write_nolock       0000000180035e1c     libucrt:write.obj
 0004:00000e28       $pdata$?write_double_translated_ansi_nolock@@YA?AUwrite_result@?A0x17268360@@HQEBDI@Z 0000000180035e28     libucrt:write.obj
 0004:00000e34       $pdata$?write_text_ansi_nolock@@YA?AUwrite_result@?A0x17268360@@HQEBDI@Z 0000000180035e34     libucrt:write.obj
 0004:00000e40       $pdata$?write_text_utf16le_nolock@@YA?AUwrite_result@?A0x17268360@@HQEBDI@Z 0000000180035e40     libucrt:write.obj
 0004:00000e4c       $pdata$?write_text_utf8_nolock@@YA?AUwrite_result@?A0x17268360@@HQEBDI@Z 0000000180035e4c     libucrt:write.obj
 0004:00000e58       $pdata$__acrt_DownlevelLocaleNameToLCID 0000000180035e58     libucrt:lcidtoname_downlevel.obj
 0004:00000e64       $pdata$fclose              0000000180035e64     libucrt:fclose.obj
 0004:00000e70       $pdata$fclose$fin$0        0000000180035e70     libucrt:fclose.obj
 0004:00000e7c       $pdata$_fclose_nolock      0000000180035e7c     libucrt:fclose.obj
 0004:00000e88       $pdata$_get_osfhandle      0000000180035e88     libucrt:osfinfo.obj
 0004:00000e94       $pdata$_free_osfhnd        0000000180035e94     libucrt:osfinfo.obj
 0004:00000ea0       $pdata$__acrt_lowio_create_handle_array 0000000180035ea0     libucrt:osfinfo.obj
 0004:00000eac       $pdata$__acrt_lowio_destroy_handle_array 0000000180035eac     libucrt:osfinfo.obj
 0004:00000eb8       $pdata$__acrt_lowio_ensure_fh_exists 0000000180035eb8     libucrt:osfinfo.obj
 0004:00000ec4       $pdata$_isleadbyte_l       0000000180035ec4     libucrt:_wctype.obj
 0004:00000ed0       $pdata$?__mbrtowc_utf8@__crt_mbstring@@YA_KPEA_WPEBD_KPEAU_Mbstatet@@@Z 0000000180035ed0     libucrt:mbrtowc.obj
 0004:00000edc       $pdata$?__mbsrtowcs_utf8@__crt_mbstring@@YA_KPEA_WPEAPEBD_KPEAU_Mbstatet@@@Z 0000000180035edc     libucrt:mbrtowc.obj
 0004:00000ee8       $pdata$?__c32rtomb_utf8@__crt_mbstring@@YA_KPEAD_UPEAU_Mbstatet@@@Z 0000000180035ee8     libucrt:c32rtomb.obj
 0004:00000ef4       $pdata$__acrt_release_locale_ref 0000000180035ef4     libucrt:locale_refcounting.obj
 0004:00000f00       $pdata$__acrt_free_locale  0000000180035f00     libucrt:locale_refcounting.obj
 0004:00000f0c       $pdata$__acrt_locale_free_lc_time_if_unreferenced 0000000180035f0c     libucrt:locale_refcounting.obj
 0004:00000f18       $pdata$__acrt_update_thread_locale_data 0000000180035f18     libucrt:locale_refcounting.obj
 0004:00000f24       $pdata$__acrt_update_thread_locale_data$fin$0 0000000180035f24     libucrt:locale_refcounting.obj
 0004:00000f30       $pdata$_updatetlocinfoEx_nolock 0000000180035f30     libucrt:locale_refcounting.obj
 0004:00000f3c       $pdata$__acrt_fp_strflt_to_string 0000000180035f3c     libucrt:_fptostr.obj
 0004:00000f48       $pdata$memcpy_s            0000000180035f48     libucrt:cfout.obj
 0004:00000f54       $pdata$__acrt_fltout       0000000180035f54     libucrt:cfout.obj
 0004:00000f60       $pdata$?divide@__crt_strtox@@YA_KAEAUbig_integer@1@AEBU21@@Z 0000000180035f60     libucrt:cfout.obj
 0004:00000f6c       $pdata$0$?divide@__crt_strtox@@YA_KAEAUbig_integer@1@AEBU21@@Z 0000000180035f6c     libucrt:cfout.obj
 0004:00000f78       $pdata$1$?divide@__crt_strtox@@YA_KAEAUbig_integer@1@AEBU21@@Z 0000000180035f78     libucrt:cfout.obj
 0004:00000f84       $pdata$__acrt_stdio_flush_and_write_narrow_nolock 0000000180035f84     libucrt:_flsbuf.obj
 0004:00000f90       $pdata$__acrt_stdio_flush_and_write_wide_nolock 0000000180035f90     libucrt:_flsbuf.obj
 0004:00000f9c       $pdata$?stream_is_at_end_of_file_nolock@@YA_NV__crt_stdio_stream@@@Z 0000000180035f9c     libucrt:_flsbuf.obj
 0004:00000fa8       $pdata$??$write_buffer_nolock@D@@YA_NDV__crt_stdio_stream@@@Z 0000000180035fa8     libucrt:_flsbuf.obj
 0004:00000fb4       $pdata$??$write_buffer_nolock@_W@@YA_N_WV__crt_stdio_stream@@@Z 0000000180035fb4     libucrt:_flsbuf.obj
 0004:00000fc0       $pdata$_isatty             0000000180035fc0     libucrt:isatty.obj
 0004:00000fcc       $pdata$__acrt_locale_free_monetary 0000000180035fcc     libucrt:initmon.obj
 0004:00000fd8       $pdata$__acrt_locale_free_numeric 0000000180035fd8     libucrt:initnum.obj
 0004:00000fe4       $pdata$__acrt_locale_free_time 0000000180035fe4     libucrt:inittime.obj
 0004:00000ff0       $pdata$?free_crt_array_internal@@YAXQEAPEBX_K@Z 0000000180035ff0     libucrt:inittime.obj
 0004:00000ffc       $pdata$__acrt_GetStringTypeA 0000000180035ffc     libucrt:getstringtypea.obj
 0004:00001008       $pdata$qsort               0000000180036008     libucrt:qsort.obj
 0004:00001014       $pdata$4$qsort             0000000180036014     libucrt:qsort.obj
 0004:00001020       $pdata$5$qsort             0000000180036020     libucrt:qsort.obj
 0004:0000102c       $pdata$strncpy_s           000000018003602c     libucrt:strncpy_s.obj
 0004:00001038       $pdata$strpbrk             0000000180036038     libucrt:strpbrk.obj
 0004:00001044       $pdata$fallbackMethod      0000000180036044     libucrt:strpbrk.obj
 0004:00001050       $pdata$_mbsdec_l           0000000180036050     libucrt:mbsdec.obj
 0004:0000105c       $pdata$__acrt_LCMapStringA 000000018003605c     libucrt:lcmapstringa.obj
 0004:00001068       $pdata$?__acrt_LCMapStringA_stat@@YAHPEAU__crt_locale_pointers@@PEB_WKPEBDHPEADHHH@Z 0000000180036068     libucrt:lcmapstringa.obj
 0004:00001074       $pdata$?initialize_multibyte@@YAHXZ 0000000180036074     libucrt:multibyte_initializer.obj
 0004:00001080       $pdata$_msize_base         0000000180036080     libucrt:msize.obj
 0004:0000108c       $pdata$_realloc_base       000000018003608c     libucrt:realloc_base.obj
 0004:00001098       $pdata$??$common_lseek@_J@@YA_JH_JH@Z 0000000180036098     libucrt:lseek.obj
 0004:000010a4       $pdata$??$common_lseek_nolock@_J@@YA_JH_JH@Z 00000001800360a4     libucrt:lseek.obj
 0004:000010b0       $pdata$_putwch_nolock      00000001800360b0     libucrt:putwch.obj
 0004:000010bc       $pdata$_close              00000001800360bc     libucrt:close.obj
 0004:000010c8       $pdata$_close_nolock       00000001800360c8     libucrt:close.obj
 0004:000010d4       $pdata$??$?RV<lambda_751a882b2c74d4b022dec766aa51a29a>@@AEAV<lambda_628dfdc04ba53c8bfc02c9951375f3f5>@@V<lambda_f6c7be5f7998530c34de24c7437d6b54>@@@?$__crt_seh_guarded_call@H@@QEAAH$$QEAV<lambda_751a882b2c74d4b022dec766aa51a29a>@@AEAV<lambda_628dfdc04ba53c8bfc02c9951375f3f5>@@$$QEAV<lambda_f6c7be5f7998530c34de24c7437d6b54>@@@Z 00000001800360d4     libucrt:close.obj
 0004:000010e0       $pdata$?__mbrtoc32_utf8@__crt_mbstring@@YA_KPEA_UPEBD_KPEAU_Mbstatet@@@Z 00000001800360e0     libucrt:mbrtoc32.obj
 0004:000010ec       $pdata$fegetenv            00000001800360ec     libucrt:fegetenv.obj
 0004:000010f8       $pdata$fesetenv            00000001800360f8     libucrt:fesetenv.obj
 0004:00001104       $pdata$feholdexcept        0000000180036104     libucrt:feholdexcept.obj
 0004:0000111c       $pdata$__acrt_stdio_allocate_buffer_nolock 000000018003611c     libucrt:_getbuf.obj
 0004:00001128       $pdata$__dcrt_lowio_ensure_console_output_initialized 0000000180036128     libucrt:initcon.obj
 0004:00001134       $pdata$__dcrt_write_console 0000000180036134     libucrt:initcon.obj
 0004:00001140       $pdata$__dcrt_terminate_console_output 0000000180036140     libucrt:initcon.obj
 0004:0000114c       $pdata$__acrt_fenv_set_control 000000018003614c     libucrt:_fenvutils.obj
 0004:00001158       $pdata$_clearfp            0000000180036158     libucrt:ieee.obj
 0004:00001164       $pdata$_call_matherr       0000000180036164     libucrt:libm_error.obj
 0004:00001170       $pdata$_exception_enabled  0000000180036170     libucrt:libm_error.obj
 0004:0000117c       $pdata$_handle_error       000000018003617c     libucrt:libm_error.obj
 0004:00001188       $pdata$__acrt_initialize_fma3 0000000180036188     libucrt:fma3_available.obj
 0004:00001194       $pdata$_log_special_common 0000000180036194     libucrt:log_special.obj
 0004:000011a0       $pdata$_log10_special      00000001800361a0     libucrt:log_special.obj
 0004:000011b8       $pdata$_set_errno_from_matherr 00000001800361b8     libucrt:fpexcept.obj
 0004:000011c4       $pdata$_raise_exc          00000001800361c4     libucrt:fpexcept.obj
 0004:000011d0       $pdata$_raise_exc_ex       00000001800361d0     libucrt:fpexcept.obj
 0004:000011dc       $pdata$_clrfp              00000001800361dc     libucrt:fpctrl.obj
 0004:000011e8       $pdata$_ctrlfp             00000001800361e8     libucrt:fpctrl.obj
 0004:000011f4       $pdata$_ctrlfp$filt$0      00000001800361f4     libucrt:fpctrl.obj
 0004:00001200       $pdata$_statfp             0000000180036200     libucrt:fpctrl.obj
 0004:0000120c       $pdata$_set_statfp         000000018003620c     libucrt:fpctrl.obj
 0004:00001218       $pdata$?DloadGetSRWLockFunctionPointers@@YAEXZ 0000000180036218     DelayImp:delayhlp.obj
 0004:00001224       $pdata$?DloadObtainSection@@YAPEAXPEAK0@Z 0000000180036224     DelayImp:delayhlp.obj
 0004:00001230       $pdata$?DloadMakePermanentImageCommit@@YAXPEAX_K@Z 0000000180036230     DelayImp:delayhlp.obj
 0004:0000123c       $pdata$?DloadProtectSection@@YAXKPEAK@Z 000000018003623c     DelayImp:delayhlp.obj
 0004:00001248       $pdata$?DloadAcquireSectionWriteAccess@@YAXXZ 0000000180036248     DelayImp:delayhlp.obj
 0004:00001254       $pdata$?DloadReleaseSectionWriteAccess@@YAXXZ 0000000180036254     DelayImp:delayhlp.obj
 0004:00001260       $pdata$__delayLoadHelper2  0000000180036260     DelayImp:delayhlp.obj
 0004:0000126c       $pdata$_IsNonwritableInCurrentImage 000000018003626c     LIBCMT:pesect.obj
 0004:00001278       $pdata$_IsNonwritableInCurrentImage$filt$0 0000000180036278     LIBCMT:pesect.obj
 0004:00001284       $pdata$__GSHandlerCheckCommon 0000000180036284     LIBCMT:gshandler.obj
 0004:00001290       $pdata$__GSHandlerCheck    0000000180036290     LIBCMT:gshandler.obj
 0004:000012b4       $pdata$??$assumeCompression@$01V?$FunctionCallbackInfo@VValue@v8@@@Nan@@V?$Local@VObject@v8@@@v8@@@?A0xa5113622@@YAIAEBV?$FunctionCallbackInfo@VValue@v8@@@Nan@@AEBV?$Local@VObject@v8@@@v8@@@Z 00000001800362b4     addon.obj
 0004:000012c0       $pdata$??$isPoint@V?$Local@VObject@v8@@@v8@@@?A0xa5113622@@YA_NAEBV?$Local@VObject@v8@@@v8@@AEAUsecp256k1_pubkey@@@Z 00000001800362c0     addon.obj
 0004:000012cc       $pdata$0$??$isPoint@V?$Local@VObject@v8@@@v8@@@?A0xa5113622@@YA_NAEBV?$Local@VObject@v8@@@v8@@AEAUsecp256k1_pubkey@@@Z 00000001800362cc     addon.obj
 0004:000012d8       $pdata$1$??$isPoint@V?$Local@VObject@v8@@@v8@@@?A0xa5113622@@YA_NAEBV?$Local@VObject@v8@@@v8@@AEAUsecp256k1_pubkey@@@Z 00000001800362d8     addon.obj
 0004:000012e4       $pdata$2$??$isPoint@V?$Local@VObject@v8@@@v8@@@?A0xa5113622@@YA_NAEBV?$Local@VObject@v8@@@v8@@AEAUsecp256k1_pubkey@@@Z 00000001800362e4     addon.obj
 0004:000012f0       $pdata$?Init@@YAXV?$Local@VObject@v8@@@v8@@@Z 00000001800362f0     addon.obj
 0004:000012fc       $pdata$?ecdsaVerify@@YAXAEBV?$FunctionCallbackInfo@VValue@v8@@@Nan@@@Z 00000001800362fc     addon.obj
 0004:00001308       $pdata$0$?ecdsaVerify@@YAXAEBV?$FunctionCallbackInfo@VValue@v8@@@Nan@@@Z 0000000180036308     addon.obj
 0004:00001314       $pdata$1$?ecdsaVerify@@YAXAEBV?$FunctionCallbackInfo@VValue@v8@@@Nan@@@Z 0000000180036314     addon.obj
 0004:00001320       $pdata$?ecdsaSign@@YAXAEBV?$FunctionCallbackInfo@VValue@v8@@@Nan@@@Z 0000000180036320     addon.obj
 0004:0000132c       $pdata$?eccPrivateSub@@YAXAEBV?$FunctionCallbackInfo@VValue@v8@@@Nan@@@Z 000000018003632c     addon.obj
 0004:00001338       $pdata$?eccPrivateAdd@@YAXAEBV?$FunctionCallbackInfo@VValue@v8@@@Nan@@@Z 0000000180036338     addon.obj
 0004:00001344       $pdata$?eccPointMultiply@@YAXAEBV?$FunctionCallbackInfo@VValue@v8@@@Nan@@@Z 0000000180036344     addon.obj
 0004:00001350       $pdata$?eccPointFromScalar@@YAXAEBV?$FunctionCallbackInfo@VValue@v8@@@Nan@@@Z 0000000180036350     addon.obj
 0004:0000135c       $pdata$0$?eccPointFromScalar@@YAXAEBV?$FunctionCallbackInfo@VValue@v8@@@Nan@@@Z 000000018003635c     addon.obj
 0004:00001368       $pdata$1$?eccPointFromScalar@@YAXAEBV?$FunctionCallbackInfo@VValue@v8@@@Nan@@@Z 0000000180036368     addon.obj
 0004:00001374       $pdata$2$?eccPointFromScalar@@YAXAEBV?$FunctionCallbackInfo@VValue@v8@@@Nan@@@Z 0000000180036374     addon.obj
 0004:00001380       $pdata$?eccPointCompress@@YAXAEBV?$FunctionCallbackInfo@VValue@v8@@@Nan@@@Z 0000000180036380     addon.obj
 0004:0000138c       $pdata$0$?eccPointCompress@@YAXAEBV?$FunctionCallbackInfo@VValue@v8@@@Nan@@@Z 000000018003638c     addon.obj
 0004:00001398       $pdata$1$?eccPointCompress@@YAXAEBV?$FunctionCallbackInfo@VValue@v8@@@Nan@@@Z 0000000180036398     addon.obj
 0004:000013a4       $pdata$?eccPointAddScalar@@YAXAEBV?$FunctionCallbackInfo@VValue@v8@@@Nan@@@Z 00000001800363a4     addon.obj
 0004:000013b0       $pdata$?eccPointAdd@@YAXAEBV?$FunctionCallbackInfo@VValue@v8@@@Nan@@@Z 00000001800363b0     addon.obj
 0004:000013bc       $pdata$0$?eccPointAdd@@YAXAEBV?$FunctionCallbackInfo@VValue@v8@@@Nan@@@Z 00000001800363bc     addon.obj
 0004:000013c8       $pdata$1$?eccPointAdd@@YAXAEBV?$FunctionCallbackInfo@VValue@v8@@@Nan@@@Z 00000001800363c8     addon.obj
 0004:000013d4       $pdata$?eccIsPrivate@@YAXAEBV?$FunctionCallbackInfo@VValue@v8@@@Nan@@@Z 00000001800363d4     addon.obj
 0004:000013e0       $pdata$?eccIsPointCompressed@@YAXAEBV?$FunctionCallbackInfo@VValue@v8@@@Nan@@@Z 00000001800363e0     addon.obj
 0004:000013ec       $pdata$?eccIsPoint@@YAXAEBV?$FunctionCallbackInfo@VValue@v8@@@Nan@@@Z 00000001800363ec     addon.obj
 0004:000013f8       $pdata$?Export@Nan@@YAXV?$Local@VObject@v8@@@v8@@PEBDP6AXAEBV?$FunctionCallbackInfo@VValue@v8@@@1@@Z@Z 00000001800363f8     addon.obj
 0004:00001404       $pdata$?ThrowTypeError@Nan@@YAXPEBD@Z 0000000180036404     addon.obj
 0004:00001410       $pdata$?FunctionCallbackWrapper@imp@Nan@@YAXAEBV?$FunctionCallbackInfo@VValue@v8@@@v8@@@Z 0000000180036410     addon.obj
 0004:0000141c       $pdata$nonce_function_rfc6979 000000018003641c     secp256k1.obj
 0004:00001428       $pdata$default_error_callback_fn 0000000180036428     secp256k1.obj
 0004:00001434       $pdata$default_illegal_callback_fn 0000000180036434     secp256k1.obj
 0004:00001440       $pdata$secp256k1_ecdsa_sig_sign 0000000180036440     secp256k1.obj
 0004:0000144c       $pdata$secp256k1_ecdsa_sig_verify 000000018003644c     secp256k1.obj
 0004:00001458       $pdata$secp256k1_ecmult_gen_blind 0000000180036458     secp256k1.obj
 0004:00001464       $pdata$secp256k1_ecmult_gen 0000000180036464     secp256k1.obj
 0004:00001470       $pdata$secp256k1_ecmult_gen_context_build 0000000180036470     secp256k1.obj
 0004:0000147c       $pdata$1$secp256k1_ecmult_gen_context_build 000000018003647c     secp256k1.obj
 0004:00001488       $pdata$6$secp256k1_ecmult_gen_context_build 0000000180036488     secp256k1.obj
 0004:00001494       $pdata$7$secp256k1_ecmult_gen_context_build 0000000180036494     secp256k1.obj
 0004:000014a0       $pdata$8$secp256k1_ecmult_gen_context_build 00000001800364a0     secp256k1.obj
 0004:000014ac       $pdata$secp256k1_rfc6979_hmac_sha256_generate 00000001800364ac     secp256k1.obj
 0004:000014b8       $pdata$secp256k1_rfc6979_hmac_sha256_initialize 00000001800364b8     secp256k1.obj
 0004:000014c4       $pdata$secp256k1_hmac_sha256_finalize 00000001800364c4     secp256k1.obj
 0004:000014d0       $pdata$0$secp256k1_hmac_sha256_finalize 00000001800364d0     secp256k1.obj
 0004:000014dc       $pdata$1$secp256k1_hmac_sha256_finalize 00000001800364dc     secp256k1.obj
 0004:000014e8       $pdata$secp256k1_hmac_sha256_initialize 00000001800364e8     secp256k1.obj
 0004:000014f4       $pdata$secp256k1_sha256_finalize 00000001800364f4     secp256k1.obj
 0004:00001500       $pdata$secp256k1_sha256_write 0000000180036500     secp256k1.obj
 0004:0000150c       $pdata$0$secp256k1_sha256_write 000000018003650c     secp256k1.obj
 0004:00001518       $pdata$1$secp256k1_sha256_write 0000000180036518     secp256k1.obj
 0004:00001524       $pdata$secp256k1_sha256_transform 0000000180036524     secp256k1.obj
 0004:00001530       $pdata$secp256k1_ecmult    0000000180036530     secp256k1.obj
 0004:0000153c       $pdata$secp256k1_ecmult_wnaf 000000018003653c     secp256k1.obj
 0004:00001548       $pdata$0$secp256k1_ecmult_wnaf 0000000180036548     secp256k1.obj
 0004:00001554       $pdata$secp256k1_ecmult_odd_multiples_table_storage_var 0000000180036554     secp256k1.obj
 0004:00001560       $pdata$secp256k1_ecmult_odd_multiples_table 0000000180036560     secp256k1.obj
 0004:0000156c       $pdata$secp256k1_ge_to_storage 000000018003656c     secp256k1.obj
 0004:00001578       $pdata$secp256k1_gej_add_ge 0000000180036578     secp256k1.obj
 0004:00001584       $pdata$secp256k1_gej_add_zinv_var 0000000180036584     secp256k1.obj
 0004:00001590       $pdata$1$secp256k1_gej_add_zinv_var 0000000180036590     secp256k1.obj
 0004:0000159c       $pdata$2$secp256k1_gej_add_zinv_var 000000018003659c     secp256k1.obj
 0004:000015a8       $pdata$3$secp256k1_gej_add_zinv_var 00000001800365a8     secp256k1.obj
 0004:000015b4       $pdata$4$secp256k1_gej_add_zinv_var 00000001800365b4     secp256k1.obj
 0004:000015c0       $pdata$secp256k1_gej_add_ge_var 00000001800365c0     secp256k1.obj
 0004:000015cc       $pdata$2$secp256k1_gej_add_ge_var 00000001800365cc     secp256k1.obj
 0004:000015d8       $pdata$3$secp256k1_gej_add_ge_var 00000001800365d8     secp256k1.obj
 0004:000015e4       $pdata$secp256k1_gej_add_var 00000001800365e4     secp256k1.obj
 0004:000015f0       $pdata$3$secp256k1_gej_add_var 00000001800365f0     secp256k1.obj
 0004:000015fc       $pdata$4$secp256k1_gej_add_var 00000001800365fc     secp256k1.obj
 0004:00001608       $pdata$secp256k1_gej_double_var 0000000180036608     secp256k1.obj
 0004:00001614       $pdata$2$secp256k1_gej_double_var 0000000180036614     secp256k1.obj
 0004:00001620       $pdata$3$secp256k1_gej_double_var 0000000180036620     secp256k1.obj
 0004:0000162c       $pdata$secp256k1_ge_is_valid_var 000000018003662c     secp256k1.obj
 0004:00001638       $pdata$1$secp256k1_ge_is_valid_var 0000000180036638     secp256k1.obj
 0004:00001644       $pdata$2$secp256k1_ge_is_valid_var 0000000180036644     secp256k1.obj
 0004:00001650       $pdata$secp256k1_gej_neg   0000000180036650     secp256k1.obj
 0004:0000165c       $pdata$secp256k1_gej_eq_x_var 000000018003665c     secp256k1.obj
 0004:00001668       $pdata$secp256k1_ge_set_xo_var 0000000180036668     secp256k1.obj
 0004:00001674       $pdata$secp256k1_ge_set_all_gej_var 0000000180036674     secp256k1.obj
 0004:00001680       $pdata$secp256k1_ge_set_gej 0000000180036680     secp256k1.obj
 0004:0000168c       $pdata$secp256k1_scalar_inverse 000000018003668c     secp256k1.obj
 0004:00001698       $pdata$secp256k1_scalar_sqr_512 0000000180036698     secp256k1.obj
 0004:000016a4       $pdata$secp256k1_scalar_mul_512 00000001800366a4     secp256k1.obj
 0004:000016b0       $pdata$secp256k1_scalar_reduce_512 00000001800366b0     secp256k1.obj
 0004:000016bc       $pdata$secp256k1_scalar_set_b32 00000001800366bc     secp256k1.obj
 0004:000016c8       $pdata$secp256k1_scalar_add 00000001800366c8     secp256k1.obj
 0004:000016d4       $pdata$secp256k1_fe_inv    00000001800366d4     secp256k1.obj
 0004:000016e0       $pdata$secp256k1_fe_sqrt   00000001800366e0     secp256k1.obj
 0004:000016ec       $pdata$secp256k1_fe_sqr_inner 00000001800366ec     secp256k1.obj
 0004:000016f8       $pdata$secp256k1_fe_mul_inner 00000001800366f8     secp256k1.obj
 0004:00001704       $pdata$secp256k1_fe_set_b32 0000000180036704     secp256k1.obj
 0004:00001710       $pdata$secp256k1_fe_normalizes_to_zero_var 0000000180036710     secp256k1.obj
 0004:0000171c       $pdata$secp256k1_fe_normalizes_to_zero 000000018003671c     secp256k1.obj
 0004:00001728       $pdata$secp256k1_fe_normalize_var 0000000180036728     secp256k1.obj
 0004:00001734       $pdata$secp256k1_fe_normalize_weak 0000000180036734     secp256k1.obj
 0004:00001740       $pdata$secp256k1_fe_normalize 0000000180036740     secp256k1.obj
 0004:0000174c       $pdata$fprintf             000000018003674c     secp256k1.obj
 0004:00001758       $pdata$secp256k1_ecdsa_verify 0000000180036758     secp256k1.obj
 0004:00001764       $pdata$1$secp256k1_ecdsa_verify 0000000180036764     secp256k1.obj
 0004:00001770       $pdata$2$secp256k1_ecdsa_verify 0000000180036770     secp256k1.obj
 0004:0000177c       $pdata$3$secp256k1_ecdsa_verify 000000018003677c     secp256k1.obj
 0004:00001788       $pdata$secp256k1_ec_privkey_negate 0000000180036788     secp256k1.obj
 0004:00001794       $pdata$secp256k1_ecdsa_sign 0000000180036794     secp256k1.obj
 0004:000017a0       $pdata$0$secp256k1_ecdsa_sign 00000001800367a0     secp256k1.obj
 0004:000017ac       $pdata$1$secp256k1_ecdsa_sign 00000001800367ac     secp256k1.obj
 0004:000017b8       $pdata$2$secp256k1_ecdsa_sign 00000001800367b8     secp256k1.obj
 0004:000017c4       $pdata$secp256k1_ec_pubkey_tweak_add 00000001800367c4     secp256k1.obj
 0004:000017d0       $pdata$0$secp256k1_ec_pubkey_tweak_add 00000001800367d0     secp256k1.obj
 0004:000017dc       $pdata$1$secp256k1_ec_pubkey_tweak_add 00000001800367dc     secp256k1.obj
 0004:000017e8       $pdata$secp256k1_ec_pubkey_serialize 00000001800367e8     secp256k1.obj
 0004:000017f4       $pdata$1$secp256k1_ec_pubkey_serialize 00000001800367f4     secp256k1.obj
 0004:00001800       $pdata$2$secp256k1_ec_pubkey_serialize 0000000180036800     secp256k1.obj
 0004:0000180c       $pdata$secp256k1_ecdsa_signature_serialize_compact 000000018003680c     secp256k1.obj
 0004:00001818       $pdata$secp256k1_ecdsa_signature_normalize 0000000180036818     secp256k1.obj
 0004:00001824       $pdata$secp256k1_ec_privkey_tweak_add 0000000180036824     secp256k1.obj
 0004:00001830       $pdata$secp256k1_ec_pubkey_tweak_mul 0000000180036830     secp256k1.obj
 0004:0000183c       $pdata$0$secp256k1_ec_pubkey_tweak_mul 000000018003683c     secp256k1.obj
 0004:00001848       $pdata$1$secp256k1_ec_pubkey_tweak_mul 0000000180036848     secp256k1.obj
 0004:00001854       $pdata$secp256k1_ec_pubkey_combine 0000000180036854     secp256k1.obj
 0004:00001860       $pdata$1$secp256k1_ec_pubkey_combine 0000000180036860     secp256k1.obj
 0004:0000186c       $pdata$2$secp256k1_ec_pubkey_combine 000000018003686c     secp256k1.obj
 0004:00001878       $pdata$3$secp256k1_ec_pubkey_combine 0000000180036878     secp256k1.obj
 0004:00001884       $pdata$?load_exe_hook@@YAP6A_JXZIPEAUDelayLoadInfo@@@Z 0000000180036884     win_delay_load_hook.obj
 0005:00000000       MsetTab                    0000000180037000     libvcruntime:memset.obj
 0005:00000050       MoveSmall                  0000000180037050     libvcruntime:memcpy.obj
 0006:00000060       $R000000                   0000000180038060     * linker generated manifest res *

 Exports

  ordinal    name

        1    _register_secp256k1_
